---
triple:          'arm64-apple-darwin'
binary-path:     ac
relocations:
  - { offsetInCU: 0x40, offset: 0x40, size: 0x8, addend: 0x0, symName: _n, symObjAddr: 0x6BF50, symBinAddr: 0x100010008, symSize: 0x0 }
  - { offsetInCU: 0x5D, offset: 0x5D, size: 0x8, addend: 0x0, symName: _m, symObjAddr: 0x6BF58, symBinAddr: 0x100010010, symSize: 0x0 }
  - { offsetInCU: 0x73, offset: 0x73, size: 0x8, addend: 0x0, symName: _h, symObjAddr: 0x6BF60, symBinAddr: 0x100010018, symSize: 0x0 }
  - { offsetInCU: 0x89, offset: 0x89, size: 0x8, addend: 0x0, symName: _x, symObjAddr: 0x6BF68, symBinAddr: 0x100010020, symSize: 0x0 }
  - { offsetInCU: 0x9F, offset: 0x9F, size: 0x8, addend: 0x0, symName: _y, symObjAddr: 0x6BF70, symBinAddr: 0x100010028, symSize: 0x0 }
  - { offsetInCU: 0xB5, offset: 0xB5, size: 0x8, addend: 0x0, symName: _z, symObjAddr: 0x6BF78, symBinAddr: 0x100010030, symSize: 0x0 }
  - { offsetInCU: 0xCB, offset: 0xCB, size: 0x8, addend: 0x0, symName: _a, symObjAddr: 0x6BF80, symBinAddr: 0x100010038, symSize: 0x0 }
  - { offsetInCU: 0xE1, offset: 0xE1, size: 0x8, addend: 0x0, symName: _b, symObjAddr: 0x6BF88, symBinAddr: 0x100010040, symSize: 0x0 }
  - { offsetInCU: 0xF7, offset: 0xF7, size: 0x8, addend: 0x0, symName: _c, symObjAddr: 0x6BF90, symBinAddr: 0x100010048, symSize: 0x0 }
  - { offsetInCU: 0x10D, offset: 0x10D, size: 0x8, addend: 0x0, symName: _d, symObjAddr: 0x6BF98, symBinAddr: 0x100010050, symSize: 0x0 }
  - { offsetInCU: 0x123, offset: 0x123, size: 0x8, addend: 0x0, symName: _e, symObjAddr: 0x6BFA0, symBinAddr: 0x100010058, symSize: 0x0 }
  - { offsetInCU: 0x139, offset: 0x139, size: 0x8, addend: 0x0, symName: _u, symObjAddr: 0x6BFA8, symBinAddr: 0x100010060, symSize: 0x0 }
  - { offsetInCU: 0x14F, offset: 0x14F, size: 0x8, addend: 0x0, symName: _v, symObjAddr: 0x6BFB0, symBinAddr: 0x100010068, symSize: 0x0 }
  - { offsetInCU: 0x165, offset: 0x165, size: 0x8, addend: 0x0, symName: _w, symObjAddr: 0x6BFB8, symBinAddr: 0x100010070, symSize: 0x0 }
  - { offsetInCU: 0x17B, offset: 0x17B, size: 0x8, addend: 0x0, symName: _i, symObjAddr: 0x6BFC0, symBinAddr: 0x100010078, symSize: 0x0 }
  - { offsetInCU: 0x191, offset: 0x191, size: 0x8, addend: 0x0, symName: _j, symObjAddr: 0x6BFC8, symBinAddr: 0x100010080, symSize: 0x0 }
  - { offsetInCU: 0x1A7, offset: 0x1A7, size: 0x8, addend: 0x0, symName: _k, symObjAddr: 0x6BFD0, symBinAddr: 0x100010088, symSize: 0x0 }
  - { offsetInCU: 0x1BD, offset: 0x1BD, size: 0x8, addend: 0x0, symName: _l, symObjAddr: 0x6BFD8, symBinAddr: 0x100010090, symSize: 0x0 }
  - { offsetInCU: 0x1D3, offset: 0x1D3, size: 0x8, addend: 0x0, symName: _r, symObjAddr: 0x6BFE0, symBinAddr: 0x100010098, symSize: 0x0 }
  - { offsetInCU: 0x1E9, offset: 0x1E9, size: 0x8, addend: 0x0, symName: _nn, symObjAddr: 0x6BFE8, symBinAddr: 0x1000100A0, symSize: 0x0 }
  - { offsetInCU: 0x1FF, offset: 0x1FF, size: 0x8, addend: 0x0, symName: _mm, symObjAddr: 0x6BFF0, symBinAddr: 0x1000100A8, symSize: 0x0 }
  - { offsetInCU: 0x215, offset: 0x215, size: 0x8, addend: 0x0, symName: _ans, symObjAddr: 0x6BFF8, symBinAddr: 0x1000100B0, symSize: 0x0 }
  - { offsetInCU: 0x22B, offset: 0x22B, size: 0x8, addend: 0x0, symName: _p, symObjAddr: 0x6C000, symBinAddr: 0x1000100B8, symSize: 0x0 }
  - { offsetInCU: 0x241, offset: 0x241, size: 0x8, addend: 0x0, symName: _q, symObjAddr: 0x6C008, symBinAddr: 0x1000100C0, symSize: 0x0 }
  - { offsetInCU: 0x257, offset: 0x257, size: 0x8, addend: 0x0, symName: _len, symObjAddr: 0x6C010, symBinAddr: 0x1000100C8, symSize: 0x0 }
  - { offsetInCU: 0x26D, offset: 0x26D, size: 0x8, addend: 0x0, symName: _llen, symObjAddr: 0x6C018, symBinAddr: 0x1000100D0, symSize: 0x0 }
  - { offsetInCU: 0x283, offset: 0x283, size: 0x8, addend: 0x0, symName: _T, symObjAddr: 0x6C020, symBinAddr: 0x1000100D8, symSize: 0x0 }
  - { offsetInCU: 0x299, offset: 0x299, size: 0x8, addend: 0x0, symName: _he, symObjAddr: 0x6C028, symBinAddr: 0x1000100E0, symSize: 0x0 }
  - { offsetInCU: 0x2AF, offset: 0x2AF, size: 0x8, addend: 0x0, symName: _wcnm, symObjAddr: 0x7348, symBinAddr: 0x100010000, symSize: 0x0 }
  - { offsetInCU: 0x2C5, offset: 0x2C5, size: 0x8, addend: 0x0, symName: _id, symObjAddr: 0x6C030, symBinAddr: 0x1000100E8, symSize: 0x0 }
  - { offsetInCU: 0x2DB, offset: 0x2DB, size: 0x8, addend: 0x0, symName: _s, symObjAddr: 0x6C038, symBinAddr: 0x1000100F0, symSize: 0x0 }
  - { offsetInCU: 0x2E62, offset: 0x2E62, size: 0x8, addend: 0x0, symName: __ZNSt3__119piecewise_constructE, symObjAddr: 0x736F, symBinAddr: 0x10000BAE8, symSize: 0x0 }
  - { offsetInCU: 0x113D5, offset: 0x113D5, size: 0x8, addend: 0x0, symName: __ZNSt3__124__put_character_sequenceB8ue170006IcNS_11char_traitsIcEEEERNS_13basic_ostreamIT_T0_EES7_PKS4_m, symObjAddr: 0x680C, symBinAddr: 0x10000AD24, symSize: 0x1EC }
  - { offsetInCU: 0x13147, offset: 0x13147, size: 0x8, addend: 0x0, symName: __ZNSt3__14swapB8ue170006IxEENS_9enable_ifIXaasr21is_move_constructibleIT_EE5valuesr18is_move_assignableIS2_EE5valueEvE4typeERS2_S5_, symObjAddr: 0x158, symBinAddr: 0x100004670, symSize: 0x3C }
  - { offsetInCU: 0x13198, offset: 0x13198, size: 0x8, addend: 0x0, symName: __ZNSt3__1neB8ue170006IPcEEbRKNS_11__wrap_iterIT_EES6_, symObjAddr: 0x660, symBinAddr: 0x100004B78, symSize: 0x34 }
  - { offsetInCU: 0x131DB, offset: 0x131DB, size: 0x8, addend: 0x0, symName: __ZNSt3__1eqB8ue170006ERKNS_14__map_iteratorINS_15__tree_iteratorINS_12__value_typeIxxEEPNS_11__tree_nodeIS3_PvEElEEEESB_, symObjAddr: 0xA80, symBinAddr: 0x100004F98, symSize: 0x30 }
  - { offsetInCU: 0x1413E, offset: 0x1413E, size: 0x8, addend: 0x0, symName: __ZNSt3__1lsB8ue170006INS_11char_traitsIcEEEERNS_13basic_ostreamIcT_EES6_PKc, symObjAddr: 0x186C, symBinAddr: 0x100005D84, symSize: 0x48 }
  - { offsetInCU: 0x1419A, offset: 0x1419A, size: 0x8, addend: 0x0, symName: __ZNSt3__1eqB8ue170006IPcEEbRKNS_11__wrap_iterIT_EES6_, symObjAddr: 0x1F04, symBinAddr: 0x10000641C, symSize: 0x48 }
  - { offsetInCU: 0x141DD, offset: 0x141DD, size: 0x8, addend: 0x0, symName: __ZNSt3__112__to_addressB8ue170006IcEEPT_S2_, symObjAddr: 0x2310, symBinAddr: 0x100006828, symSize: 0x14 }
  - { offsetInCU: 0x14237, offset: 0x14237, size: 0x8, addend: 0x0, symName: __ZNSt3__112construct_atB8ue170006IcJcEPcEEPT_S3_DpOT0_, symObjAddr: 0x2394, symBinAddr: 0x1000068AC, symSize: 0x2C }
  - { offsetInCU: 0x142A7, offset: 0x142A7, size: 0x8, addend: 0x0, symName: __ZNSt3__13maxB8ue170006ImEERKT_S3_S3_, symObjAddr: 0x2700, symBinAddr: 0x100006C18, symSize: 0x2C }
  - { offsetInCU: 0x142EA, offset: 0x142EA, size: 0x8, addend: 0x0, symName: __ZNSt3__13minB8ue170006ImEERKT_S3_S3_, symObjAddr: 0x272C, symBinAddr: 0x100006C44, symSize: 0x2C }
  - { offsetInCU: 0x14517, offset: 0x14517, size: 0x8, addend: 0x0, symName: __ZNSt3__13minB8ue170006ImNS_6__lessIvvEEEERKT_S5_S5_T0_, symObjAddr: 0x27BC, symBinAddr: 0x100006CD4, symSize: 0x54 }
  - { offsetInCU: 0x147A2, offset: 0x147A2, size: 0x8, addend: 0x0, symName: __ZNSt3__120__throw_length_errorB8ue170006EPKc, symObjAddr: 0x28A0, symBinAddr: 0x100006DB8, symSize: 0x64 }
  - { offsetInCU: 0x147CC, offset: 0x147CC, size: 0x8, addend: 0x0, symName: __ZNSt3__13maxB8ue170006ImNS_6__lessIvvEEEERKT_S5_S5_T0_, symObjAddr: 0x29E4, symBinAddr: 0x100006EFC, symSize: 0x54 }
  - { offsetInCU: 0x14826, offset: 0x14826, size: 0x8, addend: 0x0, symName: __ZNSt3__119__allocate_at_leastB8ue170006INS_9allocatorIcEEEENS_19__allocation_resultINS_16allocator_traitsIT_E7pointerEEERS5_m, symObjAddr: 0x2B48, symBinAddr: 0x100007060, symSize: 0x40 }
  - { offsetInCU: 0x14869, offset: 0x14869, size: 0x8, addend: 0x0, symName: __ZNSt3__117__libcpp_allocateB8ue170006Emm, symObjAddr: 0x2CCC, symBinAddr: 0x1000071E4, symSize: 0x60 }
  - { offsetInCU: 0x148C3, offset: 0x148C3, size: 0x8, addend: 0x0, symName: __ZNSt3__124__is_overaligned_for_newB8ue170006Em, symObjAddr: 0x2D2C, symBinAddr: 0x100007244, symSize: 0x20 }
  - { offsetInCU: 0x148F1, offset: 0x148F1, size: 0x8, addend: 0x0, symName: __ZNSt3__121__libcpp_operator_newB8ue170006IJmSt11align_val_tEEEPvDpT_, symObjAddr: 0x2D4C, symBinAddr: 0x100007264, symSize: 0x2C }
  - { offsetInCU: 0x1493E, offset: 0x1493E, size: 0x8, addend: 0x0, symName: __ZNSt3__121__libcpp_operator_newB8ue170006IJmEEEPvDpT_, symObjAddr: 0x2D78, symBinAddr: 0x100007290, symSize: 0x24 }
  - { offsetInCU: 0x14977, offset: 0x14977, size: 0x8, addend: 0x0, symName: __ZNSt3__142__uninitialized_allocator_move_if_noexceptB8ue170006INS_9allocatorIcEENS_16reverse_iteratorIPcEES5_cvEET1_RT_T0_S9_S6_, symObjAddr: 0x2EB8, symBinAddr: 0x1000073D0, symSize: 0x78 }
  - { offsetInCU: 0x149F4, offset: 0x149F4, size: 0x8, addend: 0x0, symName: __ZNSt3__14swapB8ue170006IPcEENS_9enable_ifIXaasr21is_move_constructibleIT_EE5valuesr18is_move_assignableIS3_EE5valueEvE4typeERS3_S6_, symObjAddr: 0x2F7C, symBinAddr: 0x100007494, symSize: 0x3C }
  - { offsetInCU: 0x14A45, offset: 0x14A45, size: 0x8, addend: 0x0, symName: __ZNSt3__14moveB8ue170006INS_16reverse_iteratorIPcEES3_EET0_T_S5_S4_, symObjAddr: 0x30AC, symBinAddr: 0x1000075C4, symSize: 0x78 }
  - { offsetInCU: 0x14A9F, offset: 0x14A9F, size: 0x8, addend: 0x0, symName: __ZNSt3__16__moveB8ue170006INS_17_ClassicAlgPolicyENS_16reverse_iteratorIPcEES4_S4_EENS_4pairIT0_T2_EES6_T1_S7_, symObjAddr: 0x3124, symBinAddr: 0x10000763C, symSize: 0x64 }
  - { offsetInCU: 0x14B0B, offset: 0x14B0B, size: 0x8, addend: 0x0, symName: __ZNSt3__123__dispatch_copy_or_moveB8ue170006INS_17_ClassicAlgPolicyENS_11__move_loopIS1_EENS_14__move_trivialENS_16reverse_iteratorIPcEES7_S7_EENS_4pairIT2_T4_EES9_T3_SA_, symObjAddr: 0x3188, symBinAddr: 0x1000076A0, symSize: 0x64 }
  - { offsetInCU: 0x14B89, offset: 0x14B89, size: 0x8, addend: 0x0, symName: __ZNSt3__121__unwrap_and_dispatchB8ue170006INS_10__overloadINS_11__move_loopINS_17_ClassicAlgPolicyEEENS_14__move_trivialEEENS_16reverse_iteratorIPcEES9_S9_Li0EEENS_4pairIT0_T2_EESB_T1_SC_, symObjAddr: 0x31EC, symBinAddr: 0x100007704, symSize: 0x12C }
  - { offsetInCU: 0x14C19, offset: 0x14C19, size: 0x8, addend: 0x0, symName: __ZNSt3__114__unwrap_rangeB8ue170006INS_16reverse_iteratorIPcEES3_EEDaT_T0_, symObjAddr: 0x3318, symBinAddr: 0x100007830, symSize: 0x4C }
  - { offsetInCU: 0x14D94, offset: 0x14D94, size: 0x8, addend: 0x0, symName: __ZNSt3__113__unwrap_iterB8ue170006INS_16reverse_iteratorIPcEENS_18__unwrap_iter_implIS3_Lb0EEELi0EEEDTclsrT0_8__unwrapclsr3stdE7declvalIT_EEEES7_, symObjAddr: 0x3404, symBinAddr: 0x10000791C, symSize: 0x44 }
  - { offsetInCU: 0x14DD8, offset: 0x14DD8, size: 0x8, addend: 0x0, symName: __ZNSt3__19make_pairB8ue170006INS_16reverse_iteratorIPcEES3_EENS_4pairINS_18__unwrap_ref_decayIT_E4typeENS5_IT0_E4typeEEEOS6_OS9_, symObjAddr: 0x3448, symBinAddr: 0x100007960, symSize: 0x38 }
  - { offsetInCU: 0x14E27, offset: 0x14E27, size: 0x8, addend: 0x0, symName: __ZNSt3__114__rewrap_rangeB8ue170006INS_16reverse_iteratorIPcEES3_S3_EET0_S4_T1_, symObjAddr: 0x3480, symBinAddr: 0x100007998, symSize: 0x5C }
  - { offsetInCU: 0x14E7C, offset: 0x14E7C, size: 0x8, addend: 0x0, symName: __ZNSt3__113__rewrap_iterB8ue170006INS_16reverse_iteratorIPcEES3_NS_18__unwrap_iter_implIS3_Lb0EEEEET_S6_T0_, symObjAddr: 0x34DC, symBinAddr: 0x1000079F4, symSize: 0x74 }
  - { offsetInCU: 0x14F21, offset: 0x14F21, size: 0x8, addend: 0x0, symName: __ZNSt3__1neB8ue170006IPcS1_EEbRKNS_16reverse_iteratorIT_EERKNS2_IT0_EE, symObjAddr: 0x3644, symBinAddr: 0x100007B5C, symSize: 0x48 }
  - { offsetInCU: 0x1501F, offset: 0x1501F, size: 0x8, addend: 0x0, symName: __ZNSt3__110destroy_atB8ue170006IcLi0EEEvPT_, symObjAddr: 0x39C8, symBinAddr: 0x100007EE0, symSize: 0x24 }
  - { offsetInCU: 0x15056, offset: 0x15056, size: 0x8, addend: 0x0, symName: __ZNSt3__112__destroy_atB8ue170006IcLi0EEEvPT_, symObjAddr: 0x39EC, symBinAddr: 0x100007F04, symSize: 0x10 }
  - { offsetInCU: 0x1508D, offset: 0x1508D, size: 0x8, addend: 0x0, symName: __ZNSt3__119__libcpp_deallocateB8ue170006EPvmm, symObjAddr: 0x3A3C, symBinAddr: 0x100007F54, symSize: 0x60 }
  - { offsetInCU: 0x150F2, offset: 0x150F2, size: 0x8, addend: 0x0, symName: __ZNSt3__127__do_deallocate_handle_sizeB8ue170006IJSt11align_val_tEEEvPvmDpT_, symObjAddr: 0x3A9C, symBinAddr: 0x100007FB4, symSize: 0x30 }
  - { offsetInCU: 0x15145, offset: 0x15145, size: 0x8, addend: 0x0, symName: __ZNSt3__127__do_deallocate_handle_sizeB8ue170006IJEEEvPvmDpT_, symObjAddr: 0x3ACC, symBinAddr: 0x100007FE4, symSize: 0x28 }
  - { offsetInCU: 0x15183, offset: 0x15183, size: 0x8, addend: 0x0, symName: __ZNSt3__124__libcpp_operator_deleteB8ue170006IJPvSt11align_val_tEEEvDpT_, symObjAddr: 0x3AF4, symBinAddr: 0x10000800C, symSize: 0x2C }
  - { offsetInCU: 0x151CC, offset: 0x151CC, size: 0x8, addend: 0x0, symName: __ZNSt3__124__libcpp_operator_deleteB8ue170006IJPvEEEvDpT_, symObjAddr: 0x3B20, symBinAddr: 0x100008038, symSize: 0x24 }
  - { offsetInCU: 0x15201, offset: 0x15201, size: 0x8, addend: 0x0, symName: __ZNSt3__118__constexpr_strlenB8ue170006EPKc, symObjAddr: 0x3CA8, symBinAddr: 0x1000081C0, symSize: 0x24 }
  - { offsetInCU: 0x15260, offset: 0x15260, size: 0x8, addend: 0x0, symName: __ZNSt3__110destroy_atB8ue170006INS_4pairIKxxEELi0EEEvPT_, symObjAddr: 0x46B8, symBinAddr: 0x100008BD0, symSize: 0x24 }
  - { offsetInCU: 0x15297, offset: 0x15297, size: 0x8, addend: 0x0, symName: __ZNSt3__112__destroy_atB8ue170006INS_4pairIKxxEELi0EEEvPT_, symObjAddr: 0x46DC, symBinAddr: 0x100008BF4, symSize: 0x10 }
  - { offsetInCU: 0x152CE, offset: 0x152CE, size: 0x8, addend: 0x0, symName: __ZNSt3__17launderB8ue170006INS_4pairIKxxEEEEPT_S5_, symObjAddr: 0x4710, symBinAddr: 0x100008C28, symSize: 0x24 }
  - { offsetInCU: 0x15305, offset: 0x15305, size: 0x8, addend: 0x0, symName: __ZNSt3__19__launderB8ue170006INS_4pairIKxxEEEEPT_S5_, symObjAddr: 0x4734, symBinAddr: 0x100008C4C, symSize: 0x14 }
  - { offsetInCU: 0x15373, offset: 0x15373, size: 0x8, addend: 0x0, symName: __ZNSt3__116forward_as_tupleB8ue170006IJxEEENS_5tupleIJDpOT_EEES4_, symObjAddr: 0x49C4, symBinAddr: 0x100008EDC, symSize: 0x2C }
  - { offsetInCU: 0x153AC, offset: 0x153AC, size: 0x8, addend: 0x0, symName: __ZNSt3__116forward_as_tupleB8ue170006IJEEENS_5tupleIJDpOT_EEES4_, symObjAddr: 0x49F0, symBinAddr: 0x100008F08, symSize: 0x4 }
  - { offsetInCU: 0x153D0, offset: 0x153D0, size: 0x8, addend: 0x0, symName: __ZNSt3__17launderB8ue170006IKNS_4pairIKxxEEEEPT_S6_, symObjAddr: 0x500C, symBinAddr: 0x100009524, symSize: 0x24 }
  - { offsetInCU: 0x15407, offset: 0x15407, size: 0x8, addend: 0x0, symName: __ZNSt3__19__launderB8ue170006IKNS_4pairIKxxEEEEPT_S6_, symObjAddr: 0x5030, symBinAddr: 0x100009548, symSize: 0x14 }
  - { offsetInCU: 0x15481, offset: 0x15481, size: 0x8, addend: 0x0, symName: __ZNSt3__112construct_atB8ue170006INS_4pairIKxxEEJRKNS_21piecewise_construct_tENS_5tupleIJOxEEENS7_IJEEEEPS3_EEPT_SD_DpOT0_, symObjAddr: 0x5350, symBinAddr: 0x100009868, symSize: 0x50 }
  - { offsetInCU: 0x15522, offset: 0x15522, size: 0x8, addend: 0x0, symName: __ZNSt3__13getB8ue170006ILm0EJOxEEERNS_13tuple_elementIXT_ENS_5tupleIJDpT0_EEEE4typeERS6_, symObjAddr: 0x5468, symBinAddr: 0x100009980, symSize: 0x24 }
  - { offsetInCU: 0x15565, offset: 0x15565, size: 0x8, addend: 0x0, symName: __ZNSt3__127__tree_balance_after_insertB8ue170006IPNS_16__tree_node_baseIPvEEEEvT_S5_, symObjAddr: 0x5518, symBinAddr: 0x100009A30, symSize: 0x32C }
  - { offsetInCU: 0x155E1, offset: 0x155E1, size: 0x8, addend: 0x0, symName: __ZNSt3__120__tree_is_left_childB8ue170006IPNS_16__tree_node_baseIPvEEEEbT_, symObjAddr: 0x585C, symBinAddr: 0x100009D74, symSize: 0x2C }
  - { offsetInCU: 0x15616, offset: 0x15616, size: 0x8, addend: 0x0, symName: __ZNSt3__118__tree_left_rotateB8ue170006IPNS_16__tree_node_baseIPvEEEEvT_, symObjAddr: 0x5888, symBinAddr: 0x100009DA0, symSize: 0xD8 }
  - { offsetInCU: 0x15658, offset: 0x15658, size: 0x8, addend: 0x0, symName: __ZNSt3__119__tree_right_rotateB8ue170006IPNS_16__tree_node_baseIPvEEEEvT_, symObjAddr: 0x5960, symBinAddr: 0x100009E78, symSize: 0xCC }
  - { offsetInCU: 0x156F1, offset: 0x156F1, size: 0x8, addend: 0x0, symName: __ZNSt3__1neB8ue170006ERKNS_15__tree_iteratorINS_12__value_typeIxxEEPNS_11__tree_nodeIS2_PvEElEES9_, symObjAddr: 0x5F08, symBinAddr: 0x10000A420, symSize: 0x34 }
  - { offsetInCU: 0x1572E, offset: 0x1572E, size: 0x8, addend: 0x0, symName: __ZNSt3__1eqB8ue170006ERKNS_15__tree_iteratorINS_12__value_typeIxxEEPNS_11__tree_nodeIS2_PvEElEES9_, symObjAddr: 0x5FEC, symBinAddr: 0x10000A504, symSize: 0x30 }
  - { offsetInCU: 0x1576B, offset: 0x1576B, size: 0x8, addend: 0x0, symName: __ZNSt3__116forward_as_tupleB8ue170006IJRKxEEENS_5tupleIJDpOT_EEES6_, symObjAddr: 0x613C, symBinAddr: 0x10000A654, symSize: 0x2C }
  - { offsetInCU: 0x157A4, offset: 0x157A4, size: 0x8, addend: 0x0, symName: __ZNSt3__112construct_atB8ue170006INS_4pairIKxxEEJRKNS_21piecewise_construct_tENS_5tupleIJRS2_EEENS7_IJEEEEPS3_EEPT_SD_DpOT0_, symObjAddr: 0x62C8, symBinAddr: 0x10000A7E0, symSize: 0x50 }
  - { offsetInCU: 0x1583A, offset: 0x1583A, size: 0x8, addend: 0x0, symName: __ZNSt3__13getB8ue170006ILm0EJRKxEEERNS_13tuple_elementIXT_ENS_5tupleIJDpT0_EEEE4typeERS7_, symObjAddr: 0x63E0, symBinAddr: 0x10000A8F8, symSize: 0x24 }
  - { offsetInCU: 0x15892, offset: 0x15892, size: 0x8, addend: 0x0, symName: __ZNSt3__116__pad_and_outputB8ue170006IcNS_11char_traitsIcEEEENS_19ostreambuf_iteratorIT_T0_EES6_PKS4_S8_S8_RNS_8ios_baseES4_, symObjAddr: 0x6A14, symBinAddr: 0x10000AF2C, symSize: 0x240 }
  - { offsetInCU: 0x15961, offset: 0x15961, size: 0x8, addend: 0x0, symName: __ZNSt3__19use_facetB8ue170006INS_5ctypeIcEEEERKT_RKNS_6localeE, symObjAddr: 0x6F94, symBinAddr: 0x10000B4AC, symSize: 0x2C }
  - { offsetInCU: 0x1635C, offset: 0x1635C, size: 0x8, addend: 0x0, symName: __ZSt28__throw_bad_array_new_lengthB8ue170006v, symObjAddr: 0x2C98, symBinAddr: 0x1000071B0, symSize: 0x34 }
  - { offsetInCU: 0x16577, offset: 0x16577, size: 0x8, addend: 0x0, symName: _t, symObjAddr: 0x6C050, symBinAddr: 0x100010108, symSize: 0x0 }
  - { offsetInCU: 0x1658D, offset: 0x1658D, size: 0x8, addend: 0x0, symName: _A, symObjAddr: 0x6C068, symBinAddr: 0x100010120, symSize: 0x0 }
  - { offsetInCU: 0x16E01, offset: 0x16E01, size: 0x8, addend: 0x0, symName: __ZNSt3__16vectorIcNS_9allocatorIcEEE26__swap_out_circular_bufferERNS_14__split_bufferIcRS2_EE, symObjAddr: 0x2510, symBinAddr: 0x100006A28, symSize: 0x110 }
  - { offsetInCU: 0x196DB, offset: 0x196DB, size: 0x8, addend: 0x0, symName: __Z3powxxx, symObjAddr: 0x0, symBinAddr: 0x100004518, symSize: 0xC0 }
  - { offsetInCU: 0x19731, offset: 0x19731, size: 0x8, addend: 0x0, symName: __Z3gcdxx, symObjAddr: 0xC0, symBinAddr: 0x1000045D8, symSize: 0x98 }
  - { offsetInCU: 0x19787, offset: 0x19787, size: 0x8, addend: 0x0, symName: __Z5ExgcdxxRxS_, symObjAddr: 0x194, symBinAddr: 0x1000046AC, symSize: 0xD8 }
  - { offsetInCU: 0x197F9, offset: 0x197F9, size: 0x8, addend: 0x0, symName: __Z10Math_Blockx, symObjAddr: 0x26C, symBinAddr: 0x100004784, symSize: 0x94 }
  - { offsetInCU: 0x1984F, offset: 0x1984F, size: 0x8, addend: 0x0, symName: __Z4Oulax, symObjAddr: 0x300, symBinAddr: 0x100004818, symSize: 0x11C }
  - { offsetInCU: 0x198A5, offset: 0x198A5, size: 0x8, addend: 0x0, symName: __Z3powxNSt3__112basic_stringIcNS_11char_traitsIcEENS_9allocatorIcEEEEx, symObjAddr: 0x41C, symBinAddr: 0x100004934, symSize: 0x1A4 }
  - { offsetInCU: 0x199AE, offset: 0x199AE, size: 0x8, addend: 0x0, symName: __ZNSt3__112basic_stringIcNS_11char_traitsIcEENS_9allocatorIcEEE5beginB8ue170006Ev, symObjAddr: 0x5C0, symBinAddr: 0x100004AD8, symSize: 0x4C }
  - { offsetInCU: 0x199D4, offset: 0x199D4, size: 0x8, addend: 0x0, symName: __ZNSt3__112basic_stringIcNS_11char_traitsIcEENS_9allocatorIcEEE3endB8ue170006Ev, symObjAddr: 0x60C, symBinAddr: 0x100004B24, symSize: 0x54 }
  - { offsetInCU: 0x199FA, offset: 0x199FA, size: 0x8, addend: 0x0, symName: __ZNKSt3__111__wrap_iterIPcEdeB8ue170006Ev, symObjAddr: 0x694, symBinAddr: 0x100004BAC, symSize: 0x18 }
  - { offsetInCU: 0x19A20, offset: 0x19A20, size: 0x8, addend: 0x0, symName: __ZNSt3__111__wrap_iterIPcEppB8ue170006Ev, symObjAddr: 0x6AC, symBinAddr: 0x100004BC4, symSize: 0x20 }
  - { offsetInCU: 0x19A45, offset: 0x19A45, size: 0x8, addend: 0x0, symName: __Z4BSGSxxx, symObjAddr: 0x6CC, symBinAddr: 0x100004BE4, symSize: 0x2C8 }
  - { offsetInCU: 0x19B16, offset: 0x19B16, size: 0x8, addend: 0x0, symName: __ZNSt3__13mapIxxNS_4lessIxEENS_9allocatorINS_4pairIKxxEEEEEC1B8ue170006Ev, symObjAddr: 0x994, symBinAddr: 0x100004EAC, symSize: 0x2C }
  - { offsetInCU: 0x19B40, offset: 0x19B40, size: 0x8, addend: 0x0, symName: __ZNSt3__13mapIxxNS_4lessIxEENS_9allocatorINS_4pairIKxxEEEEE5clearB8ue170006Ev, symObjAddr: 0x9C0, symBinAddr: 0x100004ED8, symSize: 0x24 }
  - { offsetInCU: 0x19B65, offset: 0x19B65, size: 0x8, addend: 0x0, symName: __Z4sqrtB8ue170006IxENSt3__19enable_ifIXsr3std11is_integralIT_EE5valueEdE4typeES2_, symObjAddr: 0x9E4, symBinAddr: 0x100004EFC, symSize: 0x1C }
  - { offsetInCU: 0x19B9D, offset: 0x19B9D, size: 0x8, addend: 0x0, symName: __ZNSt3__13mapIxxNS_4lessIxEENS_9allocatorINS_4pairIKxxEEEEEixEOx, symObjAddr: 0xA00, symBinAddr: 0x100004F18, symSize: 0x80 }
  - { offsetInCU: 0x19BD4, offset: 0x19BD4, size: 0x8, addend: 0x0, symName: __ZNSt3__13mapIxxNS_4lessIxEENS_9allocatorINS_4pairIKxxEEEEE4findB8ue170006ERS5_, symObjAddr: 0xAB0, symBinAddr: 0x100004FC8, symSize: 0x40 }
  - { offsetInCU: 0x19C09, offset: 0x19C09, size: 0x8, addend: 0x0, symName: __ZNSt3__13mapIxxNS_4lessIxEENS_9allocatorINS_4pairIKxxEEEEE3endB8ue170006Ev, symObjAddr: 0xAF0, symBinAddr: 0x100005008, symSize: 0x38 }
  - { offsetInCU: 0x19C2F, offset: 0x19C2F, size: 0x8, addend: 0x0, symName: __ZNSt3__13mapIxxNS_4lessIxEENS_9allocatorINS_4pairIKxxEEEEEixERS5_, symObjAddr: 0xB28, symBinAddr: 0x100005040, symSize: 0x80 }
  - { offsetInCU: 0x19C66, offset: 0x19C66, size: 0x8, addend: 0x0, symName: __ZNSt3__13mapIxxNS_4lessIxEENS_9allocatorINS_4pairIKxxEEEEED1B8ue170006Ev, symObjAddr: 0xBA8, symBinAddr: 0x1000050C0, symSize: 0x2C }
  - { offsetInCU: 0x19C8F, offset: 0x19C8F, size: 0x8, addend: 0x0, symName: __Z7ex_BSGSxxx, symObjAddr: 0xBD4, symBinAddr: 0x1000050EC, symSize: 0x34C }
  - { offsetInCU: 0x19D87, offset: 0x19D87, size: 0x8, addend: 0x0, symName: __ZNKSt3__13mapIxxNS_4lessIxEENS_9allocatorINS_4pairIKxxEEEEE5countB8ue170006ERS5_, symObjAddr: 0xF20, symBinAddr: 0x100005438, symSize: 0x2C }
  - { offsetInCU: 0x19DBB, offset: 0x19DBB, size: 0x8, addend: 0x0, symName: __Z7get_numx, symObjAddr: 0xF4C, symBinAddr: 0x100005464, symSize: 0x160 }
  - { offsetInCU: 0x19E09, offset: 0x19E09, size: 0x8, addend: 0x0, symName: __ZNSt3__16vectorIcNS_9allocatorIcEEEC1B8ue170006Ev, symObjAddr: 0x10AC, symBinAddr: 0x1000055C4, symSize: 0x2C }
  - { offsetInCU: 0x19E33, offset: 0x19E33, size: 0x8, addend: 0x0, symName: __ZNSt3__16vectorIcNS_9allocatorIcEEE9push_backB8ue170006EOc, symObjAddr: 0x10D8, symBinAddr: 0x1000055F0, symSize: 0x6C }
  - { offsetInCU: 0x19E6F, offset: 0x19E6F, size: 0x8, addend: 0x0, symName: __ZNSt3__112basic_stringIcNS_11char_traitsIcEENS_9allocatorIcEEEC1B8ue170006ILi0EEEPKc, symObjAddr: 0x1144, symBinAddr: 0x10000565C, symSize: 0x34 }
  - { offsetInCU: 0x19EAE, offset: 0x19EAE, size: 0x8, addend: 0x0, symName: __ZNKSt3__16vectorIcNS_9allocatorIcEEE4sizeB8ue170006Ev, symObjAddr: 0x1178, symBinAddr: 0x100005690, symSize: 0x20 }
  - { offsetInCU: 0x19ED4, offset: 0x19ED4, size: 0x8, addend: 0x0, symName: __ZNSt3__16vectorIcNS_9allocatorIcEEE4backB8ue170006Ev, symObjAddr: 0x1198, symBinAddr: 0x1000056B0, symSize: 0x1C }
  - { offsetInCU: 0x19EFA, offset: 0x19EFA, size: 0x8, addend: 0x0, symName: __ZNSt3__112basic_stringIcNS_11char_traitsIcEENS_9allocatorIcEEEpLB8ue170006Ec, symObjAddr: 0x11B4, symBinAddr: 0x1000056CC, symSize: 0x34 }
  - { offsetInCU: 0x19F2F, offset: 0x19F2F, size: 0x8, addend: 0x0, symName: __ZNSt3__16vectorIcNS_9allocatorIcEEE8pop_backEv, symObjAddr: 0x11E8, symBinAddr: 0x100005700, symSize: 0x2C }
  - { offsetInCU: 0x19F57, offset: 0x19F57, size: 0x8, addend: 0x0, symName: __ZNSt3__16vectorIcNS_9allocatorIcEEED1B8ue170006Ev, symObjAddr: 0x1214, symBinAddr: 0x10000572C, symSize: 0x2C }
  - { offsetInCU: 0x19F80, offset: 0x19F80, size: 0x8, addend: 0x0, symName: __Z5solveRNSt3__114basic_ifstreamIcNS_11char_traitsIcEEEERNS_14basic_ofstreamIcS2_EE, symObjAddr: 0x1240, symBinAddr: 0x100005758, symSize: 0x354 }
  - { offsetInCU: 0x1A0FA, offset: 0x1A0FA, size: 0x8, addend: 0x0, symName: __ZNSt3__114basic_ifstreamIcNS_11char_traitsIcEEEC1EPKcj, symObjAddr: 0x1594, symBinAddr: 0x100005AAC, symSize: 0x16C }
  - { offsetInCU: 0x1A15E, offset: 0x1A15E, size: 0x8, addend: 0x0, symName: __ZNSt3__114basic_ofstreamIcNS_11char_traitsIcEEEC1EPKcj, symObjAddr: 0x1700, symBinAddr: 0x100005C18, symSize: 0x16C }
  - { offsetInCU: 0x1A1A8, offset: 0x1A1A8, size: 0x8, addend: 0x0, symName: __ZNSt3__114basic_ofstreamIcNS_11char_traitsIcEEE5closeEv, symObjAddr: 0x18B4, symBinAddr: 0x100005DCC, symSize: 0x58 }
  - { offsetInCU: 0x1A1D5, offset: 0x1A1D5, size: 0x8, addend: 0x0, symName: __ZNSt3__114basic_ofstreamIcNS_11char_traitsIcEEED1Ev, symObjAddr: 0x190C, symBinAddr: 0x100005E24, symSize: 0x40 }
  - { offsetInCU: 0x1A207, offset: 0x1A207, size: 0x8, addend: 0x0, symName: __ZNSt3__114basic_ifstreamIcNS_11char_traitsIcEEED1Ev, symObjAddr: 0x194C, symBinAddr: 0x100005E64, symSize: 0x40 }
  - { offsetInCU: 0x1A234, offset: 0x1A234, size: 0x8, addend: 0x0, symName: _main, symObjAddr: 0x198C, symBinAddr: 0x100005EA4, symSize: 0x108 }
  - { offsetInCU: 0x1A28A, offset: 0x1A28A, size: 0x8, addend: 0x0, symName: __ZNSt3__114basic_ifstreamIcNS_11char_traitsIcEEEC1Ev, symObjAddr: 0x1A94, symBinAddr: 0x100005FAC, symSize: 0xE8 }
  - { offsetInCU: 0x1A2B6, offset: 0x1A2B6, size: 0x8, addend: 0x0, symName: __ZNSt3__114basic_ofstreamIcNS_11char_traitsIcEEEC1Ev, symObjAddr: 0x1B7C, symBinAddr: 0x100006094, symSize: 0xE8 }
  - { offsetInCU: 0x1A2E2, offset: 0x1A2E2, size: 0x8, addend: 0x0, symName: __ZNSt3__112basic_stringIcNS_11char_traitsIcEENS_9allocatorIcEEE15__make_iteratorB8ue170006EPc, symObjAddr: 0x1C64, symBinAddr: 0x10000617C, symSize: 0x30 }
  - { offsetInCU: 0x1A317, offset: 0x1A317, size: 0x8, addend: 0x0, symName: __ZNSt3__112basic_stringIcNS_11char_traitsIcEENS_9allocatorIcEEE13__get_pointerB8ue170006Ev, symObjAddr: 0x1C94, symBinAddr: 0x1000061AC, symSize: 0x54 }
  - { offsetInCU: 0x1A33D, offset: 0x1A33D, size: 0x8, addend: 0x0, symName: __ZNSt3__111__wrap_iterIPcEC1B8ue170006ES1_, symObjAddr: 0x1CF4, symBinAddr: 0x10000620C, symSize: 0x34 }
  - { offsetInCU: 0x1A375, offset: 0x1A375, size: 0x8, addend: 0x0, symName: __ZNSt3__111__wrap_iterIPcEC2B8ue170006ES1_, symObjAddr: 0x1D28, symBinAddr: 0x100006240, symSize: 0x20 }
  - { offsetInCU: 0x1A3AD, offset: 0x1A3AD, size: 0x8, addend: 0x0, symName: __ZNKSt3__112basic_stringIcNS_11char_traitsIcEENS_9allocatorIcEEE9__is_longB8ue170006Ev, symObjAddr: 0x1D48, symBinAddr: 0x100006260, symSize: 0x38 }
  - { offsetInCU: 0x1A3D3, offset: 0x1A3D3, size: 0x8, addend: 0x0, symName: __ZNSt3__112basic_stringIcNS_11char_traitsIcEENS_9allocatorIcEEE18__get_long_pointerB8ue170006Ev, symObjAddr: 0x1D80, symBinAddr: 0x100006298, symSize: 0x28 }
  - { offsetInCU: 0x1A3F9, offset: 0x1A3F9, size: 0x8, addend: 0x0, symName: __ZNSt3__112basic_stringIcNS_11char_traitsIcEENS_9allocatorIcEEE19__get_short_pointerB8ue170006Ev, symObjAddr: 0x1DA8, symBinAddr: 0x1000062C0, symSize: 0x28 }
  - { offsetInCU: 0x1A41F, offset: 0x1A41F, size: 0x8, addend: 0x0, symName: __ZNKSt3__117__compressed_pairINS_12basic_stringIcNS_11char_traitsIcEENS_9allocatorIcEEE5__repES5_E5firstB8ue170006Ev, symObjAddr: 0x1DD0, symBinAddr: 0x1000062E8, symSize: 0x24 }
  - { offsetInCU: 0x1A445, offset: 0x1A445, size: 0x8, addend: 0x0, symName: __ZNKSt3__122__compressed_pair_elemINS_12basic_stringIcNS_11char_traitsIcEENS_9allocatorIcEEE5__repELi0ELb0EE5__getB8ue170006Ev, symObjAddr: 0x1DF4, symBinAddr: 0x10000630C, symSize: 0x14 }
  - { offsetInCU: 0x1A46B, offset: 0x1A46B, size: 0x8, addend: 0x0, symName: __ZNSt3__117__compressed_pairINS_12basic_stringIcNS_11char_traitsIcEENS_9allocatorIcEEE5__repES5_E5firstB8ue170006Ev, symObjAddr: 0x1E08, symBinAddr: 0x100006320, symSize: 0x24 }
  - { offsetInCU: 0x1A491, offset: 0x1A491, size: 0x8, addend: 0x0, symName: __ZNSt3__122__compressed_pair_elemINS_12basic_stringIcNS_11char_traitsIcEENS_9allocatorIcEEE5__repELi0ELb0EE5__getB8ue170006Ev, symObjAddr: 0x1E2C, symBinAddr: 0x100006344, symSize: 0x14 }
  - { offsetInCU: 0x1A4B7, offset: 0x1A4B7, size: 0x8, addend: 0x0, symName: __ZNSt3__114pointer_traitsIPcE10pointer_toB8ue170006ERc, symObjAddr: 0x1E40, symBinAddr: 0x100006358, symSize: 0x14 }
  - { offsetInCU: 0x1A4DA, offset: 0x1A4DA, size: 0x8, addend: 0x0, symName: __ZNKSt3__112basic_stringIcNS_11char_traitsIcEENS_9allocatorIcEEE4sizeB8ue170006Ev, symObjAddr: 0x1E54, symBinAddr: 0x10000636C, symSize: 0x54 }
  - { offsetInCU: 0x1A500, offset: 0x1A500, size: 0x8, addend: 0x0, symName: __ZNKSt3__112basic_stringIcNS_11char_traitsIcEENS_9allocatorIcEEE15__get_long_sizeB8ue170006Ev, symObjAddr: 0x1EA8, symBinAddr: 0x1000063C0, symSize: 0x28 }
  - { offsetInCU: 0x1A526, offset: 0x1A526, size: 0x8, addend: 0x0, symName: __ZNKSt3__112basic_stringIcNS_11char_traitsIcEENS_9allocatorIcEEE16__get_short_sizeB8ue170006Ev, symObjAddr: 0x1ED0, symBinAddr: 0x1000063E8, symSize: 0x34 }
  - { offsetInCU: 0x1A54C, offset: 0x1A54C, size: 0x8, addend: 0x0, symName: __ZNKSt3__111__wrap_iterIPcE4baseB8ue170006Ev, symObjAddr: 0x1F4C, symBinAddr: 0x100006464, symSize: 0x18 }
  - { offsetInCU: 0x1A572, offset: 0x1A572, size: 0x8, addend: 0x0, symName: __ZNSt3__16vectorIcNS_9allocatorIcEEEC2B8ue170006Ev, symObjAddr: 0x1F64, symBinAddr: 0x10000647C, symSize: 0x4C }
  - { offsetInCU: 0x1A5A8, offset: 0x1A5A8, size: 0x8, addend: 0x0, symName: __ZNSt3__117__compressed_pairIPcNS_9allocatorIcEEEC1B8ue170006IDnNS_18__default_init_tagEEEOT_OT0_, symObjAddr: 0x1FB0, symBinAddr: 0x1000064C8, symSize: 0x3C }
  - { offsetInCU: 0x1A600, offset: 0x1A600, size: 0x8, addend: 0x0, symName: __ZNSt3__117__compressed_pairIPcNS_9allocatorIcEEEC2B8ue170006IDnNS_18__default_init_tagEEEOT_OT0_, symObjAddr: 0x1FEC, symBinAddr: 0x100006504, symSize: 0x40 }
  - { offsetInCU: 0x1A658, offset: 0x1A658, size: 0x8, addend: 0x0, symName: __ZNSt3__122__compressed_pair_elemIPcLi0ELb0EEC2B8ue170006IDnvEEOT_, symObjAddr: 0x202C, symBinAddr: 0x100006544, symSize: 0x1C }
  - { offsetInCU: 0x1A69A, offset: 0x1A69A, size: 0x8, addend: 0x0, symName: __ZNSt3__122__compressed_pair_elemINS_9allocatorIcEELi1ELb1EEC2B8ue170006ENS_18__default_init_tagE, symObjAddr: 0x2048, symBinAddr: 0x100006560, symSize: 0x2C }
  - { offsetInCU: 0x1A6CF, offset: 0x1A6CF, size: 0x8, addend: 0x0, symName: __ZNSt3__19allocatorIcEC2B8ue170006Ev, symObjAddr: 0x2074, symBinAddr: 0x10000658C, symSize: 0x2C }
  - { offsetInCU: 0x1A6F9, offset: 0x1A6F9, size: 0x8, addend: 0x0, symName: __ZNSt3__116__non_trivial_ifILb1ENS_9allocatorIcEEEC2B8ue170006Ev, symObjAddr: 0x20A0, symBinAddr: 0x1000065B8, symSize: 0x14 }
  - { offsetInCU: 0x1A723, offset: 0x1A723, size: 0x8, addend: 0x0, symName: __ZNSt3__16vectorIcNS_9allocatorIcEEE9__end_capB8ue170006Ev, symObjAddr: 0x20B4, symBinAddr: 0x1000065CC, symSize: 0x28 }
  - { offsetInCU: 0x1A74F, offset: 0x1A74F, size: 0x8, addend: 0x0, symName: __ZNSt3__16vectorIcNS_9allocatorIcEEE22__construct_one_at_endB8ue170006IJcEEEvDpOT_, symObjAddr: 0x20DC, symBinAddr: 0x1000065F4, symSize: 0x90 }
  - { offsetInCU: 0x1A79E, offset: 0x1A79E, size: 0x8, addend: 0x0, symName: __ZNSt3__16vectorIcNS_9allocatorIcEEE21__push_back_slow_pathIcEEvOT_, symObjAddr: 0x216C, symBinAddr: 0x100006684, symSize: 0xD8 }
  - { offsetInCU: 0x1A7FC, offset: 0x1A7FC, size: 0x8, addend: 0x0, symName: __ZNSt3__117__compressed_pairIPcNS_9allocatorIcEEE5firstB8ue170006Ev, symObjAddr: 0x2244, symBinAddr: 0x10000675C, symSize: 0x24 }
  - { offsetInCU: 0x1A822, offset: 0x1A822, size: 0x8, addend: 0x0, symName: __ZNSt3__122__compressed_pair_elemIPcLi0ELb0EE5__getB8ue170006Ev, symObjAddr: 0x2268, symBinAddr: 0x100006780, symSize: 0x14 }
  - { offsetInCU: 0x1A861, offset: 0x1A861, size: 0x8, addend: 0x0, symName: __ZNSt3__16vectorIcNS_9allocatorIcEEE21_ConstructTransactionC1B8ue170006ERS3_m, symObjAddr: 0x227C, symBinAddr: 0x100006794, symSize: 0x3C }
  - { offsetInCU: 0x1A8A9, offset: 0x1A8A9, size: 0x8, addend: 0x0, symName: __ZNSt3__116allocator_traitsINS_9allocatorIcEEE9constructB8ue170006IcJcEvvEEvRS2_PT_DpOT0_, symObjAddr: 0x22B8, symBinAddr: 0x1000067D0, symSize: 0x30 }
  - { offsetInCU: 0x1A8FD, offset: 0x1A8FD, size: 0x8, addend: 0x0, symName: __ZNSt3__16vectorIcNS_9allocatorIcEEE7__allocB8ue170006Ev, symObjAddr: 0x22E8, symBinAddr: 0x100006800, symSize: 0x28 }
  - { offsetInCU: 0x1A923, offset: 0x1A923, size: 0x8, addend: 0x0, symName: __ZNSt3__16vectorIcNS_9allocatorIcEEE21_ConstructTransactionD1B8ue170006Ev, symObjAddr: 0x2324, symBinAddr: 0x10000683C, symSize: 0x2C }
  - { offsetInCU: 0x1A94D, offset: 0x1A94D, size: 0x8, addend: 0x0, symName: __ZNSt3__16vectorIcNS_9allocatorIcEEE21_ConstructTransactionC2B8ue170006ERS3_m, symObjAddr: 0x2350, symBinAddr: 0x100006868, symSize: 0x44 }
  - { offsetInCU: 0x1A995, offset: 0x1A995, size: 0x8, addend: 0x0, symName: __ZNSt3__117__compressed_pairIPcNS_9allocatorIcEEE6secondB8ue170006Ev, symObjAddr: 0x23C0, symBinAddr: 0x1000068D8, symSize: 0x24 }
  - { offsetInCU: 0x1A9BB, offset: 0x1A9BB, size: 0x8, addend: 0x0, symName: __ZNSt3__122__compressed_pair_elemINS_9allocatorIcEELi1ELb1EE5__getB8ue170006Ev, symObjAddr: 0x23E4, symBinAddr: 0x1000068FC, symSize: 0x14 }
  - { offsetInCU: 0x1A9E1, offset: 0x1A9E1, size: 0x8, addend: 0x0, symName: __ZNSt3__16vectorIcNS_9allocatorIcEEE21_ConstructTransactionD2B8ue170006Ev, symObjAddr: 0x23F8, symBinAddr: 0x100006910, symSize: 0x20 }
  - { offsetInCU: 0x1AA0B, offset: 0x1AA0B, size: 0x8, addend: 0x0, symName: __ZNKSt3__16vectorIcNS_9allocatorIcEEE11__recommendB8ue170006Em, symObjAddr: 0x2418, symBinAddr: 0x100006930, symSize: 0xB4 }
  - { offsetInCU: 0x1AA60, offset: 0x1AA60, size: 0x8, addend: 0x0, symName: __ZNSt3__114__split_bufferIcRNS_9allocatorIcEEEC1EmmS3_, symObjAddr: 0x24CC, symBinAddr: 0x1000069E4, symSize: 0x44 }
  - { offsetInCU: 0x1AAB6, offset: 0x1AAB6, size: 0x8, addend: 0x0, symName: __ZNSt3__114__split_bufferIcRNS_9allocatorIcEEED1Ev, symObjAddr: 0x2620, symBinAddr: 0x100006B38, symSize: 0x2C }
  - { offsetInCU: 0x1AAE2, offset: 0x1AAE2, size: 0x8, addend: 0x0, symName: __ZNKSt3__16vectorIcNS_9allocatorIcEEE8max_sizeEv, symObjAddr: 0x264C, symBinAddr: 0x100006B64, symSize: 0x60 }
  - { offsetInCU: 0x1AB0A, offset: 0x1AB0A, size: 0x8, addend: 0x0, symName: __ZNKSt3__16vectorIcNS_9allocatorIcEEE20__throw_length_errorB8ue170006Ev, symObjAddr: 0x26AC, symBinAddr: 0x100006BC4, symSize: 0x1C }
  - { offsetInCU: 0x1AB30, offset: 0x1AB30, size: 0x8, addend: 0x0, symName: __ZNKSt3__16vectorIcNS_9allocatorIcEEE8capacityB8ue170006Ev, symObjAddr: 0x26C8, symBinAddr: 0x100006BE0, symSize: 0x38 }
  - { offsetInCU: 0x1AB60, offset: 0x1AB60, size: 0x8, addend: 0x0, symName: __ZNSt3__116allocator_traitsINS_9allocatorIcEEE8max_sizeB8ue170006IS2_vvEEmRKS2_, symObjAddr: 0x2758, symBinAddr: 0x100006C70, symSize: 0x28 }
  - { offsetInCU: 0x1AB8B, offset: 0x1AB8B, size: 0x8, addend: 0x0, symName: __ZNKSt3__16vectorIcNS_9allocatorIcEEE7__allocB8ue170006Ev, symObjAddr: 0x2780, symBinAddr: 0x100006C98, symSize: 0x28 }
  - { offsetInCU: 0x1ABB1, offset: 0x1ABB1, size: 0x8, addend: 0x0, symName: __ZNSt3__114numeric_limitsIlE3maxB8ue170006Ev, symObjAddr: 0x27A8, symBinAddr: 0x100006CC0, symSize: 0x14 }
  - { offsetInCU: 0x1ABCF, offset: 0x1ABCF, size: 0x8, addend: 0x0, symName: __ZNKSt3__16__lessIvvEclB8ue170006ImmEEbRKT_RKT0_, symObjAddr: 0x2810, symBinAddr: 0x100006D28, symSize: 0x34 }
  - { offsetInCU: 0x1AC23, offset: 0x1AC23, size: 0x8, addend: 0x0, symName: __ZNSt3__114numeric_limitsImE3maxB8ue170006Ev, symObjAddr: 0x2844, symBinAddr: 0x100006D5C, symSize: 0x14 }
  - { offsetInCU: 0x1AC37, offset: 0x1AC37, size: 0x8, addend: 0x0, symName: __ZNSt3__123__libcpp_numeric_limitsImLb1EE3maxB8ue170006Ev, symObjAddr: 0x2858, symBinAddr: 0x100006D70, symSize: 0x8 }
  - { offsetInCU: 0x1AC4B, offset: 0x1AC4B, size: 0x8, addend: 0x0, symName: __ZNKSt3__117__compressed_pairIPcNS_9allocatorIcEEE6secondB8ue170006Ev, symObjAddr: 0x2860, symBinAddr: 0x100006D78, symSize: 0x24 }
  - { offsetInCU: 0x1AC71, offset: 0x1AC71, size: 0x8, addend: 0x0, symName: __ZNKSt3__122__compressed_pair_elemINS_9allocatorIcEELi1ELb1EE5__getB8ue170006Ev, symObjAddr: 0x2884, symBinAddr: 0x100006D9C, symSize: 0x14 }
  - { offsetInCU: 0x1AC97, offset: 0x1AC97, size: 0x8, addend: 0x0, symName: __ZNSt3__123__libcpp_numeric_limitsIlLb1EE3maxB8ue170006Ev, symObjAddr: 0x2898, symBinAddr: 0x100006DB0, symSize: 0x8 }
  - { offsetInCU: 0x1ACAB, offset: 0x1ACAB, size: 0x8, addend: 0x0, symName: __ZNSt12length_errorC1B8ue170006EPKc, symObjAddr: 0x2904, symBinAddr: 0x100006E1C, symSize: 0x34 }
  - { offsetInCU: 0x1ACE3, offset: 0x1ACE3, size: 0x8, addend: 0x0, symName: __ZNSt12length_errorC2B8ue170006EPKc, symObjAddr: 0x2938, symBinAddr: 0x100006E50, symSize: 0x4C }
  - { offsetInCU: 0x1AD1B, offset: 0x1AD1B, size: 0x8, addend: 0x0, symName: __ZNKSt3__16vectorIcNS_9allocatorIcEEE9__end_capB8ue170006Ev, symObjAddr: 0x2984, symBinAddr: 0x100006E9C, symSize: 0x28 }
  - { offsetInCU: 0x1AD41, offset: 0x1AD41, size: 0x8, addend: 0x0, symName: __ZNKSt3__117__compressed_pairIPcNS_9allocatorIcEEE5firstB8ue170006Ev, symObjAddr: 0x29AC, symBinAddr: 0x100006EC4, symSize: 0x24 }
  - { offsetInCU: 0x1AD67, offset: 0x1AD67, size: 0x8, addend: 0x0, symName: __ZNKSt3__122__compressed_pair_elemIPcLi0ELb0EE5__getB8ue170006Ev, symObjAddr: 0x29D0, symBinAddr: 0x100006EE8, symSize: 0x14 }
  - { offsetInCU: 0x1AD8D, offset: 0x1AD8D, size: 0x8, addend: 0x0, symName: __ZNSt3__114__split_bufferIcRNS_9allocatorIcEEEC2EmmS3_, symObjAddr: 0x2A38, symBinAddr: 0x100006F50, symSize: 0xD4 }
  - { offsetInCU: 0x1AE00, offset: 0x1AE00, size: 0x8, addend: 0x0, symName: __ZNSt3__117__compressed_pairIPcRNS_9allocatorIcEEEC1B8ue170006IDnS4_EEOT_OT0_, symObjAddr: 0x2B0C, symBinAddr: 0x100007024, symSize: 0x3C }
  - { offsetInCU: 0x1AE58, offset: 0x1AE58, size: 0x8, addend: 0x0, symName: __ZNSt3__114__split_bufferIcRNS_9allocatorIcEEE7__allocB8ue170006Ev, symObjAddr: 0x2B88, symBinAddr: 0x1000070A0, symSize: 0x28 }
  - { offsetInCU: 0x1AE7E, offset: 0x1AE7E, size: 0x8, addend: 0x0, symName: __ZNSt3__114__split_bufferIcRNS_9allocatorIcEEE9__end_capB8ue170006Ev, symObjAddr: 0x2BB0, symBinAddr: 0x1000070C8, symSize: 0x28 }
  - { offsetInCU: 0x1AEA4, offset: 0x1AEA4, size: 0x8, addend: 0x0, symName: __ZNSt3__117__compressed_pairIPcRNS_9allocatorIcEEEC2B8ue170006IDnS4_EEOT_OT0_, symObjAddr: 0x2BD8, symBinAddr: 0x1000070F0, symSize: 0x48 }
  - { offsetInCU: 0x1AEFC, offset: 0x1AEFC, size: 0x8, addend: 0x0, symName: __ZNSt3__122__compressed_pair_elemIRNS_9allocatorIcEELi1ELb0EEC2B8ue170006IS3_vEEOT_, symObjAddr: 0x2C20, symBinAddr: 0x100007138, symSize: 0x20 }
  - { offsetInCU: 0x1AF3E, offset: 0x1AF3E, size: 0x8, addend: 0x0, symName: __ZNSt3__19allocatorIcE8allocateB8ue170006Em, symObjAddr: 0x2C40, symBinAddr: 0x100007158, symSize: 0x58 }
  - { offsetInCU: 0x1AF72, offset: 0x1AF72, size: 0x8, addend: 0x0, symName: __ZNSt3__117__compressed_pairIPcRNS_9allocatorIcEEE6secondB8ue170006Ev, symObjAddr: 0x2D9C, symBinAddr: 0x1000072B4, symSize: 0x28 }
  - { offsetInCU: 0x1AF98, offset: 0x1AF98, size: 0x8, addend: 0x0, symName: __ZNSt3__122__compressed_pair_elemIRNS_9allocatorIcEELi1ELb0EE5__getB8ue170006Ev, symObjAddr: 0x2DC4, symBinAddr: 0x1000072DC, symSize: 0x18 }
  - { offsetInCU: 0x1AFBE, offset: 0x1AFBE, size: 0x8, addend: 0x0, symName: __ZNSt3__117__compressed_pairIPcRNS_9allocatorIcEEE5firstB8ue170006Ev, symObjAddr: 0x2DDC, symBinAddr: 0x1000072F4, symSize: 0x24 }
  - { offsetInCU: 0x1AFE4, offset: 0x1AFE4, size: 0x8, addend: 0x0, symName: __ZNKSt3__16vectorIcNS_9allocatorIcEEE17__annotate_deleteB8ue170006Ev, symObjAddr: 0x2E00, symBinAddr: 0x100007318, symSize: 0xB8 }
  - { offsetInCU: 0x1B00A, offset: 0x1B00A, size: 0x8, addend: 0x0, symName: __ZNSt3__116reverse_iteratorIPcEC1B8ue170006ES1_, symObjAddr: 0x2F30, symBinAddr: 0x100007448, symSize: 0x34 }
  - { offsetInCU: 0x1B042, offset: 0x1B042, size: 0x8, addend: 0x0, symName: __ZNKSt3__116reverse_iteratorIPcE4baseB8ue170006Ev, symObjAddr: 0x2F64, symBinAddr: 0x10000747C, symSize: 0x18 }
  - { offsetInCU: 0x1B068, offset: 0x1B068, size: 0x8, addend: 0x0, symName: __ZNKSt3__16vectorIcNS_9allocatorIcEEE14__annotate_newB8ue170006Em, symObjAddr: 0x2FB8, symBinAddr: 0x1000074D0, symSize: 0xAC }
  - { offsetInCU: 0x1B09D, offset: 0x1B09D, size: 0x8, addend: 0x0, symName: __ZNKSt3__16vectorIcNS_9allocatorIcEEE31__annotate_contiguous_containerB8ue170006EPKvS5_S5_S5_, symObjAddr: 0x3064, symBinAddr: 0x10000757C, symSize: 0x20 }
  - { offsetInCU: 0x1B0EF, offset: 0x1B0EF, size: 0x8, addend: 0x0, symName: __ZNKSt3__16vectorIcNS_9allocatorIcEEE4dataB8ue170006Ev, symObjAddr: 0x3084, symBinAddr: 0x10000759C, symSize: 0x28 }
  - { offsetInCU: 0x1B139, offset: 0x1B139, size: 0x8, addend: 0x0, symName: __ZNKSt3__111__move_loopINS_17_ClassicAlgPolicyEEclB8ue170006INS_16reverse_iteratorIPcEES6_S6_EENS_4pairIT_T1_EES8_T0_S9_, symObjAddr: 0x3364, symBinAddr: 0x10000787C, symSize: 0xA0 }
  - { offsetInCU: 0x1B1A4, offset: 0x1B1A4, size: 0x8, addend: 0x0, symName: __ZNSt3__119__unwrap_range_implINS_16reverse_iteratorIPcEES3_E8__unwrapB8ue170006ES3_S3_, symObjAddr: 0x3550, symBinAddr: 0x100007A68, symSize: 0x84 }
  - { offsetInCU: 0x1B1DB, offset: 0x1B1DB, size: 0x8, addend: 0x0, symName: __ZNSt3__14pairINS_16reverse_iteratorIPcEES3_EC1B8ue170006IS3_S3_LPv0EEEOT_OT0_, symObjAddr: 0x35D4, symBinAddr: 0x100007AEC, symSize: 0x3C }
  - { offsetInCU: 0x1B239, offset: 0x1B239, size: 0x8, addend: 0x0, symName: __ZNSt3__14pairINS_16reverse_iteratorIPcEES3_EC2B8ue170006IS3_S3_LPv0EEEOT_OT0_, symObjAddr: 0x3610, symBinAddr: 0x100007B28, symSize: 0x34 }
  - { offsetInCU: 0x1B297, offset: 0x1B297, size: 0x8, addend: 0x0, symName: __ZNSt3__18_IterOpsINS_17_ClassicAlgPolicyEE11__iter_moveB8ue170006IRNS_16reverse_iteratorIPcEEEENS_9enable_ifIXsr12is_referenceIDTdeclsr3stdE7declvalIRT_EEEEE5valueEDTclsr3stdE4movedeclsr3stdE7declvalISA_EEEEE4typeEOS9_, symObjAddr: 0x368C, symBinAddr: 0x100007BA4, symSize: 0x28 }
  - { offsetInCU: 0x1B2C3, offset: 0x1B2C3, size: 0x8, addend: 0x0, symName: __ZNKSt3__116reverse_iteratorIPcEdeB8ue170006Ev, symObjAddr: 0x36B4, symBinAddr: 0x100007BCC, symSize: 0x28 }
  - { offsetInCU: 0x1B2F7, offset: 0x1B2F7, size: 0x8, addend: 0x0, symName: __ZNSt3__116reverse_iteratorIPcEppB8ue170006Ev, symObjAddr: 0x36DC, symBinAddr: 0x100007BF4, symSize: 0x20 }
  - { offsetInCU: 0x1B31D, offset: 0x1B31D, size: 0x8, addend: 0x0, symName: __ZNSt3__18_IterOpsINS_17_ClassicAlgPolicyEE25__validate_iter_referenceB8ue170006IRNS_16reverse_iteratorIPcEEEEvv, symObjAddr: 0x36FC, symBinAddr: 0x100007C14, symSize: 0x4 }
  - { offsetInCU: 0x1B33B, offset: 0x1B33B, size: 0x8, addend: 0x0, symName: __ZNSt3__118__unwrap_iter_implINS_16reverse_iteratorIPcEELb0EE8__unwrapB8ue170006ES3_, symObjAddr: 0x3700, symBinAddr: 0x100007C18, symSize: 0x24 }
  - { offsetInCU: 0x1B35E, offset: 0x1B35E, size: 0x8, addend: 0x0, symName: __ZNSt3__119__unwrap_range_implINS_16reverse_iteratorIPcEES3_E8__rewrapB8ue170006ES3_S3_, symObjAddr: 0x3724, symBinAddr: 0x100007C3C, symSize: 0x5C }
  - { offsetInCU: 0x1B38F, offset: 0x1B38F, size: 0x8, addend: 0x0, symName: __ZNSt3__118__unwrap_iter_implINS_16reverse_iteratorIPcEELb0EE8__rewrapB8ue170006ES3_S3_, symObjAddr: 0x3780, symBinAddr: 0x100007C98, symSize: 0x2C }
  - { offsetInCU: 0x1B3BD, offset: 0x1B3BD, size: 0x8, addend: 0x0, symName: __ZNSt3__116reverse_iteratorIPcEC2B8ue170006ES1_, symObjAddr: 0x37AC, symBinAddr: 0x100007CC4, symSize: 0x28 }
  - { offsetInCU: 0x1B3F5, offset: 0x1B3F5, size: 0x8, addend: 0x0, symName: __ZNSt3__114__split_bufferIcRNS_9allocatorIcEEED2Ev, symObjAddr: 0x37D4, symBinAddr: 0x100007CEC, symSize: 0x8C }
  - { offsetInCU: 0x1B421, offset: 0x1B421, size: 0x8, addend: 0x0, symName: __ZNSt3__114__split_bufferIcRNS_9allocatorIcEEE5clearB8ue170006Ev, symObjAddr: 0x3860, symBinAddr: 0x100007D78, symSize: 0x28 }
  - { offsetInCU: 0x1B447, offset: 0x1B447, size: 0x8, addend: 0x0, symName: __ZNSt3__116allocator_traitsINS_9allocatorIcEEE10deallocateB8ue170006ERS2_Pcm, symObjAddr: 0x3888, symBinAddr: 0x100007DA0, symSize: 0x34 }
  - { offsetInCU: 0x1B489, offset: 0x1B489, size: 0x8, addend: 0x0, symName: __ZNKSt3__114__split_bufferIcRNS_9allocatorIcEEE8capacityB8ue170006Ev, symObjAddr: 0x38BC, symBinAddr: 0x100007DD4, symSize: 0x38 }
  - { offsetInCU: 0x1B4AF, offset: 0x1B4AF, size: 0x8, addend: 0x0, symName: __ZNSt3__114__split_bufferIcRNS_9allocatorIcEEE17__destruct_at_endB8ue170006EPc, symObjAddr: 0x38F4, symBinAddr: 0x100007E0C, symSize: 0x2C }
  - { offsetInCU: 0x1B4E3, offset: 0x1B4E3, size: 0x8, addend: 0x0, symName: __ZNSt3__114__split_bufferIcRNS_9allocatorIcEEE17__destruct_at_endB8ue170006EPcNS_17integral_constantIbLb0EEE, symObjAddr: 0x3920, symBinAddr: 0x100007E38, symSize: 0x80 }
  - { offsetInCU: 0x1B524, offset: 0x1B524, size: 0x8, addend: 0x0, symName: __ZNSt3__116allocator_traitsINS_9allocatorIcEEE7destroyB8ue170006IcvvEEvRS2_PT_, symObjAddr: 0x39A0, symBinAddr: 0x100007EB8, symSize: 0x28 }
  - { offsetInCU: 0x1B55E, offset: 0x1B55E, size: 0x8, addend: 0x0, symName: __ZNSt3__19allocatorIcE10deallocateB8ue170006EPcm, symObjAddr: 0x39FC, symBinAddr: 0x100007F14, symSize: 0x40 }
  - { offsetInCU: 0x1B5A0, offset: 0x1B5A0, size: 0x8, addend: 0x0, symName: __ZNKSt3__114__split_bufferIcRNS_9allocatorIcEEE9__end_capB8ue170006Ev, symObjAddr: 0x3B44, symBinAddr: 0x10000805C, symSize: 0x28 }
  - { offsetInCU: 0x1B5C6, offset: 0x1B5C6, size: 0x8, addend: 0x0, symName: __ZNKSt3__117__compressed_pairIPcRNS_9allocatorIcEEE5firstB8ue170006Ev, symObjAddr: 0x3B6C, symBinAddr: 0x100008084, symSize: 0x24 }
  - { offsetInCU: 0x1B5EC, offset: 0x1B5EC, size: 0x8, addend: 0x0, symName: __ZNSt3__112basic_stringIcNS_11char_traitsIcEENS_9allocatorIcEEEC2B8ue170006ILi0EEEPKc, symObjAddr: 0x3B90, symBinAddr: 0x1000080A8, symSize: 0x58 }
  - { offsetInCU: 0x1B62B, offset: 0x1B62B, size: 0x8, addend: 0x0, symName: __ZNSt3__117__compressed_pairINS_12basic_stringIcNS_11char_traitsIcEENS_9allocatorIcEEE5__repES5_EC1B8ue170006INS_18__default_init_tagESA_EEOT_OT0_, symObjAddr: 0x3BE8, symBinAddr: 0x100008100, symSize: 0x3C }
  - { offsetInCU: 0x1B683, offset: 0x1B683, size: 0x8, addend: 0x0, symName: __ZNSt3__111char_traitsIcE6lengthB8ue170006EPKc, symObjAddr: 0x3C24, symBinAddr: 0x10000813C, symSize: 0x34 }
  - { offsetInCU: 0x1B6A6, offset: 0x1B6A6, size: 0x8, addend: 0x0, symName: __ZNSt3__117__compressed_pairINS_12basic_stringIcNS_11char_traitsIcEENS_9allocatorIcEEE5__repES5_EC2B8ue170006INS_18__default_init_tagESA_EEOT_OT0_, symObjAddr: 0x3C58, symBinAddr: 0x100008170, symSize: 0x3C }
  - { offsetInCU: 0x1B6FE, offset: 0x1B6FE, size: 0x8, addend: 0x0, symName: __ZNSt3__122__compressed_pair_elemINS_12basic_stringIcNS_11char_traitsIcEENS_9allocatorIcEEE5__repELi0ELb0EEC2B8ue170006ENS_18__default_init_tagE, symObjAddr: 0x3C94, symBinAddr: 0x1000081AC, symSize: 0x14 }
  - { offsetInCU: 0x1B733, offset: 0x1B733, size: 0x8, addend: 0x0, symName: __ZNSt3__16vectorIcNS_9allocatorIcEEE17__destruct_at_endB8ue170006EPc, symObjAddr: 0x3CCC, symBinAddr: 0x1000081E4, symSize: 0x4C }
  - { offsetInCU: 0x1B777, offset: 0x1B777, size: 0x8, addend: 0x0, symName: __ZNSt3__16vectorIcNS_9allocatorIcEEE22__base_destruct_at_endB8ue170006EPc, symObjAddr: 0x3D18, symBinAddr: 0x100008230, symSize: 0x8C }
  - { offsetInCU: 0x1B7BB, offset: 0x1B7BB, size: 0x8, addend: 0x0, symName: __ZNKSt3__16vectorIcNS_9allocatorIcEEE17__annotate_shrinkB8ue170006Em, symObjAddr: 0x3DA4, symBinAddr: 0x1000082BC, symSize: 0xB4 }
  - { offsetInCU: 0x1B7F0, offset: 0x1B7F0, size: 0x8, addend: 0x0, symName: __ZNSt3__16vectorIcNS_9allocatorIcEEED2B8ue170006Ev, symObjAddr: 0x3E58, symBinAddr: 0x100008370, symSize: 0x44 }
  - { offsetInCU: 0x1B81A, offset: 0x1B81A, size: 0x8, addend: 0x0, symName: __ZNSt3__16vectorIcNS_9allocatorIcEEE16__destroy_vectorC1B8ue170006ERS3_, symObjAddr: 0x3E9C, symBinAddr: 0x1000083B4, symSize: 0x34 }
  - { offsetInCU: 0x1B853, offset: 0x1B853, size: 0x8, addend: 0x0, symName: __ZNSt3__16vectorIcNS_9allocatorIcEEE16__destroy_vectorclB8ue170006Ev, symObjAddr: 0x3ED0, symBinAddr: 0x1000083E8, symSize: 0x90 }
  - { offsetInCU: 0x1B879, offset: 0x1B879, size: 0x8, addend: 0x0, symName: __ZNSt3__16vectorIcNS_9allocatorIcEEE16__destroy_vectorC2B8ue170006ERS3_, symObjAddr: 0x3F60, symBinAddr: 0x100008478, symSize: 0x20 }
  - { offsetInCU: 0x1B8B2, offset: 0x1B8B2, size: 0x8, addend: 0x0, symName: __ZNSt3__16vectorIcNS_9allocatorIcEEE7__clearB8ue170006Ev, symObjAddr: 0x3F80, symBinAddr: 0x100008498, symSize: 0x28 }
  - { offsetInCU: 0x1B8D8, offset: 0x1B8D8, size: 0x8, addend: 0x0, symName: __ZNSt3__114basic_ofstreamIcNS_11char_traitsIcEEED2Ev, symObjAddr: 0x3FA8, symBinAddr: 0x1000084C0, symSize: 0x64 }
  - { offsetInCU: 0x1B912, offset: 0x1B912, size: 0x8, addend: 0x0, symName: __ZTv0_n24_NSt3__114basic_ofstreamIcNS_11char_traitsIcEEED1Ev, symObjAddr: 0x400C, symBinAddr: 0x100008524, symSize: 0x28 }
  - { offsetInCU: 0x1B929, offset: 0x1B929, size: 0x8, addend: 0x0, symName: __ZNSt3__114basic_ifstreamIcNS_11char_traitsIcEEED2Ev, symObjAddr: 0x4034, symBinAddr: 0x10000854C, symSize: 0x64 }
  - { offsetInCU: 0x1B963, offset: 0x1B963, size: 0x8, addend: 0x0, symName: __ZTv0_n24_NSt3__114basic_ifstreamIcNS_11char_traitsIcEEED1Ev, symObjAddr: 0x4098, symBinAddr: 0x1000085B0, symSize: 0x28 }
  - { offsetInCU: 0x1B97A, offset: 0x1B97A, size: 0x8, addend: 0x0, symName: __ZNSt3__13mapIxxNS_4lessIxEENS_9allocatorINS_4pairIKxxEEEEEC2B8ue170006Ev, symObjAddr: 0x40C0, symBinAddr: 0x1000085D8, symSize: 0x40 }
  - { offsetInCU: 0x1B9A4, offset: 0x1B9A4, size: 0x8, addend: 0x0, symName: __ZNSt3__119__map_value_compareIxNS_12__value_typeIxxEENS_4lessIxEELb1EEC1B8ue170006ES4_, symObjAddr: 0x4100, symBinAddr: 0x100008618, symSize: 0x2C }
  - { offsetInCU: 0x1B9DD, offset: 0x1B9DD, size: 0x8, addend: 0x0, symName: __ZNSt3__16__treeINS_12__value_typeIxxEENS_19__map_value_compareIxS2_NS_4lessIxEELb1EEENS_9allocatorIS2_EEEC1ERKS6_, symObjAddr: 0x412C, symBinAddr: 0x100008644, symSize: 0x34 }
  - { offsetInCU: 0x1BA18, offset: 0x1BA18, size: 0x8, addend: 0x0, symName: __ZNSt3__119__map_value_compareIxNS_12__value_typeIxxEENS_4lessIxEELb1EEC2B8ue170006ES4_, symObjAddr: 0x4160, symBinAddr: 0x100008678, symSize: 0x14 }
  - { offsetInCU: 0x1BA51, offset: 0x1BA51, size: 0x8, addend: 0x0, symName: __ZNSt3__16__treeINS_12__value_typeIxxEENS_19__map_value_compareIxS2_NS_4lessIxEELb1EEENS_9allocatorIS2_EEEC2ERKS6_, symObjAddr: 0x4174, symBinAddr: 0x10000868C, symSize: 0x7C }
  - { offsetInCU: 0x1BA8C, offset: 0x1BA8C, size: 0x8, addend: 0x0, symName: __ZNSt3__117__compressed_pairINS_15__tree_end_nodeIPNS_16__tree_node_baseIPvEEEENS_9allocatorINS_11__tree_nodeINS_12__value_typeIxxEES3_EEEEEC1B8ue170006ILb1EvEEv, symObjAddr: 0x41F0, symBinAddr: 0x100008708, symSize: 0x2C }
  - { offsetInCU: 0x1BAC7, offset: 0x1BAC7, size: 0x8, addend: 0x0, symName: __ZNSt3__117__compressed_pairImNS_19__map_value_compareIxNS_12__value_typeIxxEENS_4lessIxEELb1EEEEC1B8ue170006IiRKS6_EEOT_OT0_, symObjAddr: 0x421C, symBinAddr: 0x100008734, symSize: 0x3C }
  - { offsetInCU: 0x1BB1F, offset: 0x1BB1F, size: 0x8, addend: 0x0, symName: __ZNSt3__16__treeINS_12__value_typeIxxEENS_19__map_value_compareIxS2_NS_4lessIxEELb1EEENS_9allocatorIS2_EEE10__end_nodeB8ue170006Ev, symObjAddr: 0x4258, symBinAddr: 0x100008770, symSize: 0x2C }
  - { offsetInCU: 0x1BB45, offset: 0x1BB45, size: 0x8, addend: 0x0, symName: __ZNSt3__16__treeINS_12__value_typeIxxEENS_19__map_value_compareIxS2_NS_4lessIxEELb1EEENS_9allocatorIS2_EEE12__begin_nodeB8ue170006Ev, symObjAddr: 0x4284, symBinAddr: 0x10000879C, symSize: 0x14 }
  - { offsetInCU: 0x1BB6B, offset: 0x1BB6B, size: 0x8, addend: 0x0, symName: __ZNSt3__117__compressed_pairINS_15__tree_end_nodeIPNS_16__tree_node_baseIPvEEEENS_9allocatorINS_11__tree_nodeINS_12__value_typeIxxEES3_EEEEEC2B8ue170006ILb1EvEEv, symObjAddr: 0x4298, symBinAddr: 0x1000087B0, symSize: 0x34 }
  - { offsetInCU: 0x1BBA0, offset: 0x1BBA0, size: 0x8, addend: 0x0, symName: __ZNSt3__122__compressed_pair_elemINS_15__tree_end_nodeIPNS_16__tree_node_baseIPvEEEELi0ELb0EEC2B8ue170006ENS_16__value_init_tagE, symObjAddr: 0x42CC, symBinAddr: 0x1000087E4, symSize: 0x2C }
  - { offsetInCU: 0x1BBD5, offset: 0x1BBD5, size: 0x8, addend: 0x0, symName: __ZNSt3__122__compressed_pair_elemINS_9allocatorINS_11__tree_nodeINS_12__value_typeIxxEEPvEEEELi1ELb1EEC2B8ue170006ENS_16__value_init_tagE, symObjAddr: 0x42F8, symBinAddr: 0x100008810, symSize: 0x2C }
  - { offsetInCU: 0x1BC0A, offset: 0x1BC0A, size: 0x8, addend: 0x0, symName: __ZNSt3__115__tree_end_nodeIPNS_16__tree_node_baseIPvEEEC1B8ue170006Ev, symObjAddr: 0x4324, symBinAddr: 0x10000883C, symSize: 0x2C }
  - { offsetInCU: 0x1BC34, offset: 0x1BC34, size: 0x8, addend: 0x0, symName: __ZNSt3__115__tree_end_nodeIPNS_16__tree_node_baseIPvEEEC2B8ue170006Ev, symObjAddr: 0x4350, symBinAddr: 0x100008868, symSize: 0x18 }
  - { offsetInCU: 0x1BC5E, offset: 0x1BC5E, size: 0x8, addend: 0x0, symName: __ZNSt3__19allocatorINS_11__tree_nodeINS_12__value_typeIxxEEPvEEEC2B8ue170006Ev, symObjAddr: 0x4368, symBinAddr: 0x100008880, symSize: 0x2C }
  - { offsetInCU: 0x1BC88, offset: 0x1BC88, size: 0x8, addend: 0x0, symName: __ZNSt3__116__non_trivial_ifILb1ENS_9allocatorINS_11__tree_nodeINS_12__value_typeIxxEEPvEEEEEC2B8ue170006Ev, symObjAddr: 0x4394, symBinAddr: 0x1000088AC, symSize: 0x14 }
  - { offsetInCU: 0x1BCB2, offset: 0x1BCB2, size: 0x8, addend: 0x0, symName: __ZNSt3__117__compressed_pairImNS_19__map_value_compareIxNS_12__value_typeIxxEENS_4lessIxEELb1EEEEC2B8ue170006IiRKS6_EEOT_OT0_, symObjAddr: 0x43A8, symBinAddr: 0x1000088C0, symSize: 0x44 }
  - { offsetInCU: 0x1BD0A, offset: 0x1BD0A, size: 0x8, addend: 0x0, symName: __ZNSt3__122__compressed_pair_elemImLi0ELb0EEC2B8ue170006IivEEOT_, symObjAddr: 0x43EC, symBinAddr: 0x100008904, symSize: 0x24 }
  - { offsetInCU: 0x1BD4C, offset: 0x1BD4C, size: 0x8, addend: 0x0, symName: __ZNSt3__122__compressed_pair_elemINS_19__map_value_compareIxNS_12__value_typeIxxEENS_4lessIxEELb1EEELi1ELb1EEC2B8ue170006IRKS6_vEEOT_, symObjAddr: 0x4410, symBinAddr: 0x100008928, symSize: 0x18 }
  - { offsetInCU: 0x1BD8E, offset: 0x1BD8E, size: 0x8, addend: 0x0, symName: __ZNSt3__114pointer_traitsIPNS_15__tree_end_nodeIPNS_16__tree_node_baseIPvEEEEE10pointer_toB8ue170006ERS6_, symObjAddr: 0x4428, symBinAddr: 0x100008940, symSize: 0x14 }
  - { offsetInCU: 0x1BDB1, offset: 0x1BDB1, size: 0x8, addend: 0x0, symName: __ZNSt3__117__compressed_pairINS_15__tree_end_nodeIPNS_16__tree_node_baseIPvEEEENS_9allocatorINS_11__tree_nodeINS_12__value_typeIxxEES3_EEEEE5firstB8ue170006Ev, symObjAddr: 0x443C, symBinAddr: 0x100008954, symSize: 0x24 }
  - { offsetInCU: 0x1BDD7, offset: 0x1BDD7, size: 0x8, addend: 0x0, symName: __ZNSt3__122__compressed_pair_elemINS_15__tree_end_nodeIPNS_16__tree_node_baseIPvEEEELi0ELb0EE5__getB8ue170006Ev, symObjAddr: 0x4460, symBinAddr: 0x100008978, symSize: 0x14 }
  - { offsetInCU: 0x1BDFD, offset: 0x1BDFD, size: 0x8, addend: 0x0, symName: __ZNSt3__13mapIxxNS_4lessIxEENS_9allocatorINS_4pairIKxxEEEEED2B8ue170006Ev, symObjAddr: 0x4474, symBinAddr: 0x10000898C, symSize: 0x2C }
  - { offsetInCU: 0x1BE27, offset: 0x1BE27, size: 0x8, addend: 0x0, symName: __ZNSt3__16__treeINS_12__value_typeIxxEENS_19__map_value_compareIxS2_NS_4lessIxEELb1EEENS_9allocatorIS2_EEED1Ev, symObjAddr: 0x44A0, symBinAddr: 0x1000089B8, symSize: 0x2C }
  - { offsetInCU: 0x1BE53, offset: 0x1BE53, size: 0x8, addend: 0x0, symName: __ZNSt3__16__treeINS_12__value_typeIxxEENS_19__map_value_compareIxS2_NS_4lessIxEELb1EEENS_9allocatorIS2_EEED2Ev, symObjAddr: 0x44CC, symBinAddr: 0x1000089E4, symSize: 0x38 }
  - { offsetInCU: 0x1BE7F, offset: 0x1BE7F, size: 0x8, addend: 0x0, symName: __ZNSt3__16__treeINS_12__value_typeIxxEENS_19__map_value_compareIxS2_NS_4lessIxEELb1EEENS_9allocatorIS2_EEE7destroyEPNS_11__tree_nodeIS2_PvEE, symObjAddr: 0x4504, symBinAddr: 0x100008A1C, symSize: 0xAC }
  - { offsetInCU: 0x1BECB, offset: 0x1BECB, size: 0x8, addend: 0x0, symName: __ZNKSt3__16__treeINS_12__value_typeIxxEENS_19__map_value_compareIxS2_NS_4lessIxEELb1EEENS_9allocatorIS2_EEE6__rootB8ue170006Ev, symObjAddr: 0x45B0, symBinAddr: 0x100008AC8, symSize: 0x28 }
  - { offsetInCU: 0x1BEF1, offset: 0x1BEF1, size: 0x8, addend: 0x0, symName: __ZNSt3__16__treeINS_12__value_typeIxxEENS_19__map_value_compareIxS2_NS_4lessIxEELb1EEENS_9allocatorIS2_EEE12__node_allocB8ue170006Ev, symObjAddr: 0x45D8, symBinAddr: 0x100008AF0, symSize: 0x28 }
  - { offsetInCU: 0x1BF17, offset: 0x1BF17, size: 0x8, addend: 0x0, symName: __ZNSt3__116allocator_traitsINS_9allocatorINS_11__tree_nodeINS_12__value_typeIxxEEPvEEEEE7destroyB8ue170006INS_4pairIKxxEEvvEEvRS7_PT_, symObjAddr: 0x4600, symBinAddr: 0x100008B18, symSize: 0x28 }
  - { offsetInCU: 0x1BF51, offset: 0x1BF51, size: 0x8, addend: 0x0, symName: __ZNSt3__122__tree_key_value_typesINS_12__value_typeIxxEEE9__get_ptrB8ue170006ERS2_, symObjAddr: 0x4628, symBinAddr: 0x100008B40, symSize: 0x24 }
  - { offsetInCU: 0x1BF75, offset: 0x1BF75, size: 0x8, addend: 0x0, symName: __ZNSt3__116allocator_traitsINS_9allocatorINS_11__tree_nodeINS_12__value_typeIxxEEPvEEEEE10deallocateB8ue170006ERS7_PS6_m, symObjAddr: 0x464C, symBinAddr: 0x100008B64, symSize: 0x34 }
  - { offsetInCU: 0x1BFB7, offset: 0x1BFB7, size: 0x8, addend: 0x0, symName: __ZNSt3__117__compressed_pairINS_15__tree_end_nodeIPNS_16__tree_node_baseIPvEEEENS_9allocatorINS_11__tree_nodeINS_12__value_typeIxxEES3_EEEEE6secondB8ue170006Ev, symObjAddr: 0x4680, symBinAddr: 0x100008B98, symSize: 0x24 }
  - { offsetInCU: 0x1BFDD, offset: 0x1BFDD, size: 0x8, addend: 0x0, symName: __ZNSt3__122__compressed_pair_elemINS_9allocatorINS_11__tree_nodeINS_12__value_typeIxxEEPvEEEELi1ELb1EE5__getB8ue170006Ev, symObjAddr: 0x46A4, symBinAddr: 0x100008BBC, symSize: 0x14 }
  - { offsetInCU: 0x1C003, offset: 0x1C003, size: 0x8, addend: 0x0, symName: __ZNSt3__112__value_typeIxxE11__get_valueB8ue170006Ev, symObjAddr: 0x46EC, symBinAddr: 0x100008C04, symSize: 0x24 }
  - { offsetInCU: 0x1C029, offset: 0x1C029, size: 0x8, addend: 0x0, symName: __ZNSt3__19allocatorINS_11__tree_nodeINS_12__value_typeIxxEEPvEEE10deallocateB8ue170006EPS5_m, symObjAddr: 0x4748, symBinAddr: 0x100008C60, symSize: 0x44 }
  - { offsetInCU: 0x1C06B, offset: 0x1C06B, size: 0x8, addend: 0x0, symName: __ZNKSt3__16__treeINS_12__value_typeIxxEENS_19__map_value_compareIxS2_NS_4lessIxEELb1EEENS_9allocatorIS2_EEE10__end_nodeB8ue170006Ev, symObjAddr: 0x478C, symBinAddr: 0x100008CA4, symSize: 0x2C }
  - { offsetInCU: 0x1C091, offset: 0x1C091, size: 0x8, addend: 0x0, symName: __ZNKSt3__117__compressed_pairINS_15__tree_end_nodeIPNS_16__tree_node_baseIPvEEEENS_9allocatorINS_11__tree_nodeINS_12__value_typeIxxEES3_EEEEE5firstB8ue170006Ev, symObjAddr: 0x47B8, symBinAddr: 0x100008CD0, symSize: 0x24 }
  - { offsetInCU: 0x1C0B7, offset: 0x1C0B7, size: 0x8, addend: 0x0, symName: __ZNKSt3__122__compressed_pair_elemINS_15__tree_end_nodeIPNS_16__tree_node_baseIPvEEEELi0ELb0EE5__getB8ue170006Ev, symObjAddr: 0x47DC, symBinAddr: 0x100008CF4, symSize: 0x14 }
  - { offsetInCU: 0x1C0DD, offset: 0x1C0DD, size: 0x8, addend: 0x0, symName: __ZNSt3__16__treeINS_12__value_typeIxxEENS_19__map_value_compareIxS2_NS_4lessIxEELb1EEENS_9allocatorIS2_EEE5clearEv, symObjAddr: 0x47F0, symBinAddr: 0x100008D08, symSize: 0x74 }
  - { offsetInCU: 0x1C105, offset: 0x1C105, size: 0x8, addend: 0x0, symName: __ZNSt3__16__treeINS_12__value_typeIxxEENS_19__map_value_compareIxS2_NS_4lessIxEELb1EEENS_9allocatorIS2_EEE4sizeB8ue170006Ev, symObjAddr: 0x4864, symBinAddr: 0x100008D7C, symSize: 0x28 }
  - { offsetInCU: 0x1C12B, offset: 0x1C12B, size: 0x8, addend: 0x0, symName: __ZNSt3__117__compressed_pairImNS_19__map_value_compareIxNS_12__value_typeIxxEENS_4lessIxEELb1EEEE5firstB8ue170006Ev, symObjAddr: 0x488C, symBinAddr: 0x100008DA4, symSize: 0x24 }
  - { offsetInCU: 0x1C151, offset: 0x1C151, size: 0x8, addend: 0x0, symName: __ZNSt3__122__compressed_pair_elemImLi0ELb0EE5__getB8ue170006Ev, symObjAddr: 0x48B0, symBinAddr: 0x100008DC8, symSize: 0x14 }
  - { offsetInCU: 0x1C18C, offset: 0x1C18C, size: 0x8, addend: 0x0, symName: __ZNSt3__16__treeINS_12__value_typeIxxEENS_19__map_value_compareIxS2_NS_4lessIxEELb1EEENS_9allocatorIS2_EEE25__emplace_unique_key_argsIxJRKNS_21piecewise_construct_tENS_5tupleIJOxEEENSE_IJEEEEEENS_4pairINS_15__tree_iteratorIS2_PNS_11__tree_nodeIS2_PvEElEEbEERKT_DpOT0_, symObjAddr: 0x48C4, symBinAddr: 0x100008DDC, symSize: 0x100 }
  - { offsetInCU: 0x1C262, offset: 0x1C262, size: 0x8, addend: 0x0, symName: __ZNKSt3__115__tree_iteratorINS_12__value_typeIxxEEPNS_11__tree_nodeIS2_PvEElEptB8ue170006Ev, symObjAddr: 0x49F4, symBinAddr: 0x100008F0C, symSize: 0x2C }
  - { offsetInCU: 0x1C288, offset: 0x1C288, size: 0x8, addend: 0x0, symName: __ZNSt3__16__treeINS_12__value_typeIxxEENS_19__map_value_compareIxS2_NS_4lessIxEELb1EEENS_9allocatorIS2_EEE12__find_equalIxEERPNS_16__tree_node_baseIPvEERPNS_15__tree_end_nodeISE_EERKT_, symObjAddr: 0x4A20, symBinAddr: 0x100008F38, symSize: 0x184 }
  - { offsetInCU: 0x1C2F5, offset: 0x1C2F5, size: 0x8, addend: 0x0, symName: __ZNSt3__16__treeINS_12__value_typeIxxEENS_19__map_value_compareIxS2_NS_4lessIxEELb1EEENS_9allocatorIS2_EEE16__construct_nodeIJRKNS_21piecewise_construct_tENS_5tupleIJOxEEENSE_IJEEEEEENS_10unique_ptrINS_11__tree_nodeIS2_PvEENS_22__tree_node_destructorINS7_ISL_EEEEEEDpOT_, symObjAddr: 0x4BA4, symBinAddr: 0x1000090BC, symSize: 0x120 }
  - { offsetInCU: 0x1C37E, offset: 0x1C37E, size: 0x8, addend: 0x0, symName: __ZNSt3__16__treeINS_12__value_typeIxxEENS_19__map_value_compareIxS2_NS_4lessIxEELb1EEENS_9allocatorIS2_EEE16__insert_node_atEPNS_15__tree_end_nodeIPNS_16__tree_node_baseIPvEEEERSE_SE_, symObjAddr: 0x4CC4, symBinAddr: 0x1000091DC, symSize: 0xCC }
  - { offsetInCU: 0x1C3D3, offset: 0x1C3D3, size: 0x8, addend: 0x0, symName: __ZNKSt3__110unique_ptrINS_11__tree_nodeINS_12__value_typeIxxEEPvEENS_22__tree_node_destructorINS_9allocatorIS5_EEEEE3getB8ue170006Ev, symObjAddr: 0x4D90, symBinAddr: 0x1000092A8, symSize: 0x28 }
  - { offsetInCU: 0x1C3F9, offset: 0x1C3F9, size: 0x8, addend: 0x0, symName: __ZNSt3__110unique_ptrINS_11__tree_nodeINS_12__value_typeIxxEEPvEENS_22__tree_node_destructorINS_9allocatorIS5_EEEEE7releaseB8ue170006Ev, symObjAddr: 0x4DB8, symBinAddr: 0x1000092D0, symSize: 0x44 }
  - { offsetInCU: 0x1C42E, offset: 0x1C42E, size: 0x8, addend: 0x0, symName: __ZNSt3__110unique_ptrINS_11__tree_nodeINS_12__value_typeIxxEEPvEENS_22__tree_node_destructorINS_9allocatorIS5_EEEEED1B8ue170006Ev, symObjAddr: 0x4DFC, symBinAddr: 0x100009314, symSize: 0x2C }
  - { offsetInCU: 0x1C458, offset: 0x1C458, size: 0x8, addend: 0x0, symName: __ZNSt3__115__tree_iteratorINS_12__value_typeIxxEEPNS_11__tree_nodeIS2_PvEElEC1B8ue170006ES6_, symObjAddr: 0x4E28, symBinAddr: 0x100009340, symSize: 0x34 }
  - { offsetInCU: 0x1C497, offset: 0x1C497, size: 0x8, addend: 0x0, symName: __ZNSt3__14pairINS_15__tree_iteratorINS_12__value_typeIxxEEPNS_11__tree_nodeIS3_PvEElEEbEC1B8ue170006IS8_RbLS5_0EEEOT_OT0_, symObjAddr: 0x4E5C, symBinAddr: 0x100009374, symSize: 0x3C }
  - { offsetInCU: 0x1C4F5, offset: 0x1C4F5, size: 0x8, addend: 0x0, symName: __ZNKSt3__16__treeINS_12__value_typeIxxEENS_19__map_value_compareIxS2_NS_4lessIxEELb1EEENS_9allocatorIS2_EEE10__root_ptrB8ue170006Ev, symObjAddr: 0x4E98, symBinAddr: 0x1000093B0, symSize: 0x24 }
  - { offsetInCU: 0x1C51B, offset: 0x1C51B, size: 0x8, addend: 0x0, symName: __ZNSt3__16__treeINS_12__value_typeIxxEENS_19__map_value_compareIxS2_NS_4lessIxEELb1EEENS_9allocatorIS2_EEE10value_compB8ue170006Ev, symObjAddr: 0x4EBC, symBinAddr: 0x1000093D4, symSize: 0x28 }
  - { offsetInCU: 0x1C541, offset: 0x1C541, size: 0x8, addend: 0x0, symName: __ZNKSt3__119__map_value_compareIxNS_12__value_typeIxxEENS_4lessIxEELb1EEclB8ue170006ERKxRKS2_, symObjAddr: 0x4EE4, symBinAddr: 0x1000093FC, symSize: 0x50 }
  - { offsetInCU: 0x1C585, offset: 0x1C585, size: 0x8, addend: 0x0, symName: __ZNKSt3__119__map_value_compareIxNS_12__value_typeIxxEENS_4lessIxEELb1EEclB8ue170006ERKS2_RKx, symObjAddr: 0x4F34, symBinAddr: 0x10000944C, symSize: 0x48 }
  - { offsetInCU: 0x1C5C9, offset: 0x1C5C9, size: 0x8, addend: 0x0, symName: __ZNSt3__117__compressed_pairImNS_19__map_value_compareIxNS_12__value_typeIxxEENS_4lessIxEELb1EEEE6secondB8ue170006Ev, symObjAddr: 0x4F7C, symBinAddr: 0x100009494, symSize: 0x24 }
  - { offsetInCU: 0x1C5EF, offset: 0x1C5EF, size: 0x8, addend: 0x0, symName: __ZNSt3__122__compressed_pair_elemINS_19__map_value_compareIxNS_12__value_typeIxxEENS_4lessIxEELb1EEELi1ELb1EE5__getB8ue170006Ev, symObjAddr: 0x4FA0, symBinAddr: 0x1000094B8, symSize: 0x14 }
  - { offsetInCU: 0x1C615, offset: 0x1C615, size: 0x8, addend: 0x0, symName: __ZNKSt3__14lessIxEclB8ue170006ERKxS3_, symObjAddr: 0x4FB4, symBinAddr: 0x1000094CC, symSize: 0x34 }
  - { offsetInCU: 0x1C659, offset: 0x1C659, size: 0x8, addend: 0x0, symName: __ZNKSt3__112__value_typeIxxE11__get_valueB8ue170006Ev, symObjAddr: 0x4FE8, symBinAddr: 0x100009500, symSize: 0x24 }
  - { offsetInCU: 0x1C67F, offset: 0x1C67F, size: 0x8, addend: 0x0, symName: __ZNSt3__116allocator_traitsINS_9allocatorINS_11__tree_nodeINS_12__value_typeIxxEEPvEEEEE8allocateB8ue170006ERS7_m, symObjAddr: 0x5044, symBinAddr: 0x10000955C, symSize: 0x2C }
  - { offsetInCU: 0x1C6B2, offset: 0x1C6B2, size: 0x8, addend: 0x0, symName: __ZNSt3__122__tree_node_destructorINS_9allocatorINS_11__tree_nodeINS_12__value_typeIxxEEPvEEEEEC1B8ue170006ERS7_b, symObjAddr: 0x5070, symBinAddr: 0x100009588, symSize: 0x48 }
  - { offsetInCU: 0x1C700, offset: 0x1C700, size: 0x8, addend: 0x0, symName: __ZNSt3__110unique_ptrINS_11__tree_nodeINS_12__value_typeIxxEEPvEENS_22__tree_node_destructorINS_9allocatorIS5_EEEEEC1B8ue170006ILb1EvEEPS5_NS_16__dependent_typeINS_27__unique_ptr_deleter_sfinaeIS9_EEXT_EE20__good_rval_ref_typeE, symObjAddr: 0x50B8, symBinAddr: 0x1000095D0, symSize: 0x3C }
  - { offsetInCU: 0x1C751, offset: 0x1C751, size: 0x8, addend: 0x0, symName: __ZNSt3__116allocator_traitsINS_9allocatorINS_11__tree_nodeINS_12__value_typeIxxEEPvEEEEE9constructB8ue170006INS_4pairIKxxEEJRKNS_21piecewise_construct_tENS_5tupleIJOxEEENSG_IJEEEEvvEEvRS7_PT_DpOT0_, symObjAddr: 0x50F4, symBinAddr: 0x10000960C, symSize: 0x40 }
  - { offsetInCU: 0x1C7CD, offset: 0x1C7CD, size: 0x8, addend: 0x0, symName: __ZNKSt3__110unique_ptrINS_11__tree_nodeINS_12__value_typeIxxEEPvEENS_22__tree_node_destructorINS_9allocatorIS5_EEEEEptB8ue170006Ev, symObjAddr: 0x5134, symBinAddr: 0x10000964C, symSize: 0x28 }
  - { offsetInCU: 0x1C7F3, offset: 0x1C7F3, size: 0x8, addend: 0x0, symName: __ZNSt3__110unique_ptrINS_11__tree_nodeINS_12__value_typeIxxEEPvEENS_22__tree_node_destructorINS_9allocatorIS5_EEEEE11get_deleterB8ue170006Ev, symObjAddr: 0x515C, symBinAddr: 0x100009674, symSize: 0x24 }
  - { offsetInCU: 0x1C819, offset: 0x1C819, size: 0x8, addend: 0x0, symName: __ZNSt3__19allocatorINS_11__tree_nodeINS_12__value_typeIxxEEPvEEE8allocateB8ue170006Em, symObjAddr: 0x5180, symBinAddr: 0x100009698, symSize: 0x5C }
  - { offsetInCU: 0x1C857, offset: 0x1C857, size: 0x8, addend: 0x0, symName: __ZNSt3__116allocator_traitsINS_9allocatorINS_11__tree_nodeINS_12__value_typeIxxEEPvEEEEE8max_sizeB8ue170006IS7_vvEEmRKS7_, symObjAddr: 0x51DC, symBinAddr: 0x1000096F4, symSize: 0x28 }
  - { offsetInCU: 0x1C882, offset: 0x1C882, size: 0x8, addend: 0x0, symName: __ZNSt3__122__tree_node_destructorINS_9allocatorINS_11__tree_nodeINS_12__value_typeIxxEEPvEEEEEC2B8ue170006ERS7_b, symObjAddr: 0x5204, symBinAddr: 0x10000971C, symSize: 0x38 }
  - { offsetInCU: 0x1C8CA, offset: 0x1C8CA, size: 0x8, addend: 0x0, symName: __ZNSt3__110unique_ptrINS_11__tree_nodeINS_12__value_typeIxxEEPvEENS_22__tree_node_destructorINS_9allocatorIS5_EEEEEC2B8ue170006ILb1EvEEPS5_NS_16__dependent_typeINS_27__unique_ptr_deleter_sfinaeIS9_EEXT_EE20__good_rval_ref_typeE, symObjAddr: 0x523C, symBinAddr: 0x100009754, symSize: 0x48 }
  - { offsetInCU: 0x1C91B, offset: 0x1C91B, size: 0x8, addend: 0x0, symName: __ZNSt3__117__compressed_pairIPNS_11__tree_nodeINS_12__value_typeIxxEEPvEENS_22__tree_node_destructorINS_9allocatorIS5_EEEEEC1B8ue170006IRS6_SA_EEOT_OT0_, symObjAddr: 0x5284, symBinAddr: 0x10000979C, symSize: 0x3C }
  - { offsetInCU: 0x1C973, offset: 0x1C973, size: 0x8, addend: 0x0, symName: __ZNSt3__117__compressed_pairIPNS_11__tree_nodeINS_12__value_typeIxxEEPvEENS_22__tree_node_destructorINS_9allocatorIS5_EEEEEC2B8ue170006IRS6_SA_EEOT_OT0_, symObjAddr: 0x52C0, symBinAddr: 0x1000097D8, symSize: 0x48 }
  - { offsetInCU: 0x1C9CB, offset: 0x1C9CB, size: 0x8, addend: 0x0, symName: __ZNSt3__122__compressed_pair_elemIPNS_11__tree_nodeINS_12__value_typeIxxEEPvEELi0ELb0EEC2B8ue170006IRS6_vEEOT_, symObjAddr: 0x5308, symBinAddr: 0x100009820, symSize: 0x24 }
  - { offsetInCU: 0x1CA0D, offset: 0x1CA0D, size: 0x8, addend: 0x0, symName: __ZNSt3__122__compressed_pair_elemINS_22__tree_node_destructorINS_9allocatorINS_11__tree_nodeINS_12__value_typeIxxEEPvEEEEEELi1ELb0EEC2B8ue170006IS9_vEEOT_, symObjAddr: 0x532C, symBinAddr: 0x100009844, symSize: 0x24 }
  - { offsetInCU: 0x1CA4F, offset: 0x1CA4F, size: 0x8, addend: 0x0, symName: __ZNSt3__14pairIKxxEC1B8ue170006IJOxEJEEENS_21piecewise_construct_tENS_5tupleIJDpT_EEENS6_IJDpT0_EEE, symObjAddr: 0x53A0, symBinAddr: 0x1000098B8, symSize: 0x44 }
  - { offsetInCU: 0x1CAB6, offset: 0x1CAB6, size: 0x8, addend: 0x0, symName: __ZNSt3__14pairIKxxEC1B8ue170006IJOxEJEJLm0EEJEEENS_21piecewise_construct_tERNS_5tupleIJDpT_EEERNS6_IJDpT0_EEENS_15__tuple_indicesIJXspT1_EEEENSF_IJXspT2_EEEE, symObjAddr: 0x53E4, symBinAddr: 0x1000098FC, symSize: 0x3C }
  - { offsetInCU: 0x1CB43, offset: 0x1CB43, size: 0x8, addend: 0x0, symName: __ZNSt3__14pairIKxxEC2B8ue170006IJOxEJEJLm0EEJEEENS_21piecewise_construct_tERNS_5tupleIJDpT_EEERNS6_IJDpT0_EEENS_15__tuple_indicesIJXspT1_EEEENSF_IJXspT2_EEEE, symObjAddr: 0x5420, symBinAddr: 0x100009938, symSize: 0x48 }
  - { offsetInCU: 0x1CBD0, offset: 0x1CBD0, size: 0x8, addend: 0x0, symName: __ZNSt3__112__tuple_leafILm0EOxLb0EE3getB8ue170006Ev, symObjAddr: 0x548C, symBinAddr: 0x1000099A4, symSize: 0x18 }
  - { offsetInCU: 0x1CBF6, offset: 0x1CBF6, size: 0x8, addend: 0x0, symName: __ZNKSt3__117__compressed_pairIPNS_11__tree_nodeINS_12__value_typeIxxEEPvEENS_22__tree_node_destructorINS_9allocatorIS5_EEEEE5firstB8ue170006Ev, symObjAddr: 0x54A4, symBinAddr: 0x1000099BC, symSize: 0x24 }
  - { offsetInCU: 0x1CC1C, offset: 0x1CC1C, size: 0x8, addend: 0x0, symName: __ZNKSt3__122__compressed_pair_elemIPNS_11__tree_nodeINS_12__value_typeIxxEEPvEELi0ELb0EE5__getB8ue170006Ev, symObjAddr: 0x54C8, symBinAddr: 0x1000099E0, symSize: 0x14 }
  - { offsetInCU: 0x1CC42, offset: 0x1CC42, size: 0x8, addend: 0x0, symName: __ZNSt3__117__compressed_pairIPNS_11__tree_nodeINS_12__value_typeIxxEEPvEENS_22__tree_node_destructorINS_9allocatorIS5_EEEEE6secondB8ue170006Ev, symObjAddr: 0x54DC, symBinAddr: 0x1000099F4, symSize: 0x28 }
  - { offsetInCU: 0x1CC68, offset: 0x1CC68, size: 0x8, addend: 0x0, symName: __ZNSt3__122__compressed_pair_elemINS_22__tree_node_destructorINS_9allocatorINS_11__tree_nodeINS_12__value_typeIxxEEPvEEEEEELi1ELb0EE5__getB8ue170006Ev, symObjAddr: 0x5504, symBinAddr: 0x100009A1C, symSize: 0x14 }
  - { offsetInCU: 0x1CC8E, offset: 0x1CC8E, size: 0x8, addend: 0x0, symName: __ZNKSt3__116__tree_node_baseIPvE15__parent_unsafeB8ue170006Ev, symObjAddr: 0x5844, symBinAddr: 0x100009D5C, symSize: 0x18 }
  - { offsetInCU: 0x1CCB4, offset: 0x1CCB4, size: 0x8, addend: 0x0, symName: __ZNSt3__116__tree_node_baseIPvE12__set_parentB8ue170006EPS2_, symObjAddr: 0x5A2C, symBinAddr: 0x100009F44, symSize: 0x20 }
  - { offsetInCU: 0x1CCE9, offset: 0x1CCE9, size: 0x8, addend: 0x0, symName: __ZNSt3__117__compressed_pairIPNS_11__tree_nodeINS_12__value_typeIxxEEPvEENS_22__tree_node_destructorINS_9allocatorIS5_EEEEE5firstB8ue170006Ev, symObjAddr: 0x5A4C, symBinAddr: 0x100009F64, symSize: 0x24 }
  - { offsetInCU: 0x1CD0F, offset: 0x1CD0F, size: 0x8, addend: 0x0, symName: __ZNSt3__122__compressed_pair_elemIPNS_11__tree_nodeINS_12__value_typeIxxEEPvEELi0ELb0EE5__getB8ue170006Ev, symObjAddr: 0x5A70, symBinAddr: 0x100009F88, symSize: 0x14 }
  - { offsetInCU: 0x1CD35, offset: 0x1CD35, size: 0x8, addend: 0x0, symName: __ZNSt3__110unique_ptrINS_11__tree_nodeINS_12__value_typeIxxEEPvEENS_22__tree_node_destructorINS_9allocatorIS5_EEEEED2B8ue170006Ev, symObjAddr: 0x5A84, symBinAddr: 0x100009F9C, symSize: 0x30 }
  - { offsetInCU: 0x1CD5F, offset: 0x1CD5F, size: 0x8, addend: 0x0, symName: __ZNSt3__110unique_ptrINS_11__tree_nodeINS_12__value_typeIxxEEPvEENS_22__tree_node_destructorINS_9allocatorIS5_EEEEE5resetB8ue170006EPS5_, symObjAddr: 0x5AB4, symBinAddr: 0x100009FCC, symSize: 0x78 }
  - { offsetInCU: 0x1CDA3, offset: 0x1CDA3, size: 0x8, addend: 0x0, symName: __ZNSt3__122__tree_node_destructorINS_9allocatorINS_11__tree_nodeINS_12__value_typeIxxEEPvEEEEEclB8ue170006EPS6_, symObjAddr: 0x5B2C, symBinAddr: 0x10000A044, symSize: 0x98 }
  - { offsetInCU: 0x1CDD8, offset: 0x1CDD8, size: 0x8, addend: 0x0, symName: __ZNSt3__115__tree_iteratorINS_12__value_typeIxxEEPNS_11__tree_nodeIS2_PvEElEC2B8ue170006ES6_, symObjAddr: 0x5BC4, symBinAddr: 0x10000A0DC, symSize: 0x20 }
  - { offsetInCU: 0x1CE11, offset: 0x1CE11, size: 0x8, addend: 0x0, symName: __ZNSt3__14pairINS_15__tree_iteratorINS_12__value_typeIxxEEPNS_11__tree_nodeIS3_PvEElEEbEC2B8ue170006IS8_RbLS5_0EEEOT_OT0_, symObjAddr: 0x5BE4, symBinAddr: 0x10000A0FC, symSize: 0x38 }
  - { offsetInCU: 0x1CE6F, offset: 0x1CE6F, size: 0x8, addend: 0x0, symName: __ZNSt3__15tupleIJOxEEC1B8ue170006IJxELi0EEEDpOT_, symObjAddr: 0x5C1C, symBinAddr: 0x10000A134, symSize: 0x34 }
  - { offsetInCU: 0x1CEB9, offset: 0x1CEB9, size: 0x8, addend: 0x0, symName: __ZNSt3__15tupleIJOxEEC2B8ue170006IJxELi0EEEDpOT_, symObjAddr: 0x5C50, symBinAddr: 0x10000A168, symSize: 0x34 }
  - { offsetInCU: 0x1CF03, offset: 0x1CF03, size: 0x8, addend: 0x0, symName: __ZNSt3__112__tuple_implINS_15__tuple_indicesIJLm0EEEEJOxEEC1B8ue170006IJLm0EEJS3_EJEJEJxEEENS1_IJXspT_EEEENS_13__tuple_typesIJDpT0_EEENS1_IJXspT1_EEEENS7_IJDpT2_EEEDpOT3_, symObjAddr: 0x5C84, symBinAddr: 0x10000A19C, symSize: 0x34 }
  - { offsetInCU: 0x1CF94, offset: 0x1CF94, size: 0x8, addend: 0x0, symName: __ZNSt3__112__tuple_implINS_15__tuple_indicesIJLm0EEEEJOxEEC2B8ue170006IJLm0EEJS3_EJEJEJxEEENS1_IJXspT_EEEENS_13__tuple_typesIJDpT0_EEENS1_IJXspT1_EEEENS7_IJDpT2_EEEDpOT3_, symObjAddr: 0x5CB8, symBinAddr: 0x10000A1D0, symSize: 0x34 }
  - { offsetInCU: 0x1D025, offset: 0x1D025, size: 0x8, addend: 0x0, symName: __ZNSt3__112__tuple_leafILm0EOxLb0EEC2B8ue170006IxvEEOT_, symObjAddr: 0x5CEC, symBinAddr: 0x10000A204, symSize: 0x20 }
  - { offsetInCU: 0x1D068, offset: 0x1D068, size: 0x8, addend: 0x0, symName: __ZNSt3__114pointer_traitsIPNS_12__value_typeIxxEEE10pointer_toB8ue170006ERS2_, symObjAddr: 0x5D0C, symBinAddr: 0x10000A224, symSize: 0x14 }
  - { offsetInCU: 0x1D08B, offset: 0x1D08B, size: 0x8, addend: 0x0, symName: __ZNKSt3__115__tree_iteratorINS_12__value_typeIxxEEPNS_11__tree_nodeIS2_PvEElE8__get_npB8ue170006Ev, symObjAddr: 0x5D20, symBinAddr: 0x10000A238, symSize: 0x18 }
  - { offsetInCU: 0x1D0B1, offset: 0x1D0B1, size: 0x8, addend: 0x0, symName: __ZNSt3__16__treeINS_12__value_typeIxxEENS_19__map_value_compareIxS2_NS_4lessIxEELb1EEENS_9allocatorIS2_EEE4findIxEENS_15__tree_iteratorIS2_PNS_11__tree_nodeIS2_PvEElEERKT_, symObjAddr: 0x5D38, symBinAddr: 0x10000A250, symSize: 0xF8 }
  - { offsetInCU: 0x1D100, offset: 0x1D100, size: 0x8, addend: 0x0, symName: __ZNSt3__114__map_iteratorINS_15__tree_iteratorINS_12__value_typeIxxEEPNS_11__tree_nodeIS3_PvEElEEEC1B8ue170006ES8_, symObjAddr: 0x5E30, symBinAddr: 0x10000A348, symSize: 0x34 }
  - { offsetInCU: 0x1D139, offset: 0x1D139, size: 0x8, addend: 0x0, symName: __ZNSt3__16__treeINS_12__value_typeIxxEENS_19__map_value_compareIxS2_NS_4lessIxEELb1EEENS_9allocatorIS2_EEE13__lower_boundIxEENS_15__tree_iteratorIS2_PNS_11__tree_nodeIS2_PvEElEERKT_SF_PNS_15__tree_end_nodeIPNS_16__tree_node_baseISD_EEEE, symObjAddr: 0x5E64, symBinAddr: 0x10000A37C, symSize: 0xA4 }
  - { offsetInCU: 0x1D197, offset: 0x1D197, size: 0x8, addend: 0x0, symName: __ZNSt3__16__treeINS_12__value_typeIxxEENS_19__map_value_compareIxS2_NS_4lessIxEELb1EEENS_9allocatorIS2_EEE3endB8ue170006Ev, symObjAddr: 0x5F3C, symBinAddr: 0x10000A454, symSize: 0x34 }
  - { offsetInCU: 0x1D1BD, offset: 0x1D1BD, size: 0x8, addend: 0x0, symName: __ZNKSt3__115__tree_iteratorINS_12__value_typeIxxEEPNS_11__tree_nodeIS2_PvEElEdeB8ue170006Ev, symObjAddr: 0x5F70, symBinAddr: 0x10000A488, symSize: 0x28 }
  - { offsetInCU: 0x1D1E3, offset: 0x1D1E3, size: 0x8, addend: 0x0, symName: __ZNSt3__115__tree_iteratorINS_12__value_typeIxxEEPNS_11__tree_nodeIS2_PvEElEC1B8ue170006EPNS_15__tree_end_nodeIPNS_16__tree_node_baseIS4_EEEE, symObjAddr: 0x5F98, symBinAddr: 0x10000A4B0, symSize: 0x34 }
  - { offsetInCU: 0x1D21C, offset: 0x1D21C, size: 0x8, addend: 0x0, symName: __ZNSt3__115__tree_iteratorINS_12__value_typeIxxEEPNS_11__tree_nodeIS2_PvEElEC2B8ue170006EPNS_15__tree_end_nodeIPNS_16__tree_node_baseIS4_EEEE, symObjAddr: 0x5FCC, symBinAddr: 0x10000A4E4, symSize: 0x20 }
  - { offsetInCU: 0x1D255, offset: 0x1D255, size: 0x8, addend: 0x0, symName: __ZNSt3__114__map_iteratorINS_15__tree_iteratorINS_12__value_typeIxxEEPNS_11__tree_nodeIS3_PvEElEEEC2B8ue170006ES8_, symObjAddr: 0x601C, symBinAddr: 0x10000A534, symSize: 0x20 }
  - { offsetInCU: 0x1D28E, offset: 0x1D28E, size: 0x8, addend: 0x0, symName: __ZNSt3__16__treeINS_12__value_typeIxxEENS_19__map_value_compareIxS2_NS_4lessIxEELb1EEENS_9allocatorIS2_EEE25__emplace_unique_key_argsIxJRKNS_21piecewise_construct_tENS_5tupleIJRKxEEENSE_IJEEEEEENS_4pairINS_15__tree_iteratorIS2_PNS_11__tree_nodeIS2_PvEElEEbEERKT_DpOT0_, symObjAddr: 0x603C, symBinAddr: 0x10000A554, symSize: 0x100 }
  - { offsetInCU: 0x1D364, offset: 0x1D364, size: 0x8, addend: 0x0, symName: __ZNSt3__16__treeINS_12__value_typeIxxEENS_19__map_value_compareIxS2_NS_4lessIxEELb1EEENS_9allocatorIS2_EEE16__construct_nodeIJRKNS_21piecewise_construct_tENS_5tupleIJRKxEEENSE_IJEEEEEENS_10unique_ptrINS_11__tree_nodeIS2_PvEENS_22__tree_node_destructorINS7_ISM_EEEEEEDpOT_, symObjAddr: 0x6168, symBinAddr: 0x10000A680, symSize: 0x120 }
  - { offsetInCU: 0x1D3ED, offset: 0x1D3ED, size: 0x8, addend: 0x0, symName: __ZNSt3__116allocator_traitsINS_9allocatorINS_11__tree_nodeINS_12__value_typeIxxEEPvEEEEE9constructB8ue170006INS_4pairIKxxEEJRKNS_21piecewise_construct_tENS_5tupleIJRSB_EEENSG_IJEEEEvvEEvRS7_PT_DpOT0_, symObjAddr: 0x6288, symBinAddr: 0x10000A7A0, symSize: 0x40 }
  - { offsetInCU: 0x1D469, offset: 0x1D469, size: 0x8, addend: 0x0, symName: __ZNSt3__14pairIKxxEC1B8ue170006IJRS1_EJEEENS_21piecewise_construct_tENS_5tupleIJDpT_EEENS6_IJDpT0_EEE, symObjAddr: 0x6318, symBinAddr: 0x10000A830, symSize: 0x44 }
  - { offsetInCU: 0x1D4D0, offset: 0x1D4D0, size: 0x8, addend: 0x0, symName: __ZNSt3__14pairIKxxEC1B8ue170006IJRS1_EJEJLm0EEJEEENS_21piecewise_construct_tERNS_5tupleIJDpT_EEERNS6_IJDpT0_EEENS_15__tuple_indicesIJXspT1_EEEENSF_IJXspT2_EEEE, symObjAddr: 0x635C, symBinAddr: 0x10000A874, symSize: 0x3C }
  - { offsetInCU: 0x1D55D, offset: 0x1D55D, size: 0x8, addend: 0x0, symName: __ZNSt3__14pairIKxxEC2B8ue170006IJRS1_EJEJLm0EEJEEENS_21piecewise_construct_tERNS_5tupleIJDpT_EEERNS6_IJDpT0_EEENS_15__tuple_indicesIJXspT1_EEEENSF_IJXspT2_EEEE, symObjAddr: 0x6398, symBinAddr: 0x10000A8B0, symSize: 0x48 }
  - { offsetInCU: 0x1D5EA, offset: 0x1D5EA, size: 0x8, addend: 0x0, symName: __ZNSt3__112__tuple_leafILm0ERKxLb0EE3getB8ue170006Ev, symObjAddr: 0x6404, symBinAddr: 0x10000A91C, symSize: 0x18 }
  - { offsetInCU: 0x1D610, offset: 0x1D610, size: 0x8, addend: 0x0, symName: __ZNSt3__15tupleIJRKxEEC1B8ue170006INS_4_AndELi0EEES2_, symObjAddr: 0x641C, symBinAddr: 0x10000A934, symSize: 0x34 }
  - { offsetInCU: 0x1D658, offset: 0x1D658, size: 0x8, addend: 0x0, symName: __ZNSt3__15tupleIJRKxEEC2B8ue170006INS_4_AndELi0EEES2_, symObjAddr: 0x6450, symBinAddr: 0x10000A968, symSize: 0x34 }
  - { offsetInCU: 0x1D6A0, offset: 0x1D6A0, size: 0x8, addend: 0x0, symName: __ZNSt3__112__tuple_implINS_15__tuple_indicesIJLm0EEEEJRKxEEC1B8ue170006IJLm0EEJS4_EJEJEJS4_EEENS1_IJXspT_EEEENS_13__tuple_typesIJDpT0_EEENS1_IJXspT1_EEEENS8_IJDpT2_EEEDpOT3_, symObjAddr: 0x6484, symBinAddr: 0x10000A99C, symSize: 0x34 }
  - { offsetInCU: 0x1D731, offset: 0x1D731, size: 0x8, addend: 0x0, symName: __ZNSt3__112__tuple_implINS_15__tuple_indicesIJLm0EEEEJRKxEEC2B8ue170006IJLm0EEJS4_EJEJEJS4_EEENS1_IJXspT_EEEENS_13__tuple_typesIJDpT0_EEENS1_IJXspT1_EEEENS8_IJDpT2_EEEDpOT3_, symObjAddr: 0x64B8, symBinAddr: 0x10000A9D0, symSize: 0x34 }
  - { offsetInCU: 0x1D7C2, offset: 0x1D7C2, size: 0x8, addend: 0x0, symName: __ZNSt3__112__tuple_leafILm0ERKxLb0EEC2B8ue170006IS2_vEEOT_, symObjAddr: 0x64EC, symBinAddr: 0x10000AA04, symSize: 0x20 }
  - { offsetInCU: 0x1D805, offset: 0x1D805, size: 0x8, addend: 0x0, symName: __ZNKSt3__16__treeINS_12__value_typeIxxEENS_19__map_value_compareIxS2_NS_4lessIxEELb1EEENS_9allocatorIS2_EEE14__count_uniqueIxEEmRKT_, symObjAddr: 0x650C, symBinAddr: 0x10000AA24, symSize: 0xC8 }
  - { offsetInCU: 0x1D854, offset: 0x1D854, size: 0x8, addend: 0x0, symName: __ZNKSt3__16__treeINS_12__value_typeIxxEENS_19__map_value_compareIxS2_NS_4lessIxEELb1EEENS_9allocatorIS2_EEE10value_compB8ue170006Ev, symObjAddr: 0x65D4, symBinAddr: 0x10000AAEC, symSize: 0x28 }
  - { offsetInCU: 0x1D87A, offset: 0x1D87A, size: 0x8, addend: 0x0, symName: __ZNKSt3__117__compressed_pairImNS_19__map_value_compareIxNS_12__value_typeIxxEENS_4lessIxEELb1EEEE6secondB8ue170006Ev, symObjAddr: 0x65FC, symBinAddr: 0x10000AB14, symSize: 0x24 }
  - { offsetInCU: 0x1D8A0, offset: 0x1D8A0, size: 0x8, addend: 0x0, symName: __ZNKSt3__122__compressed_pair_elemINS_19__map_value_compareIxNS_12__value_typeIxxEENS_4lessIxEELb1EEELi1ELb1EE5__getB8ue170006Ev, symObjAddr: 0x6620, symBinAddr: 0x10000AB38, symSize: 0x14 }
  - { offsetInCU: 0x1D8C6, offset: 0x1D8C6, size: 0x8, addend: 0x0, symName: __ZNSt3__19basic_iosIcNS_11char_traitsIcEEEC2B8ue170006Ev, symObjAddr: 0x6634, symBinAddr: 0x10000AB4C, symSize: 0x44 }
  - { offsetInCU: 0x1D8F0, offset: 0x1D8F0, size: 0x8, addend: 0x0, symName: __ZNSt3__113basic_istreamIcNS_11char_traitsIcEEEC2B8ue170006EPNS_15basic_streambufIcS2_EE, symObjAddr: 0x6678, symBinAddr: 0x10000AB90, symSize: 0x64 }
  - { offsetInCU: 0x1D935, offset: 0x1D935, size: 0x8, addend: 0x0, symName: __ZNSt3__19basic_iosIcNS_11char_traitsIcEEE8setstateB8ue170006Ej, symObjAddr: 0x66DC, symBinAddr: 0x10000ABF4, symSize: 0x2C }
  - { offsetInCU: 0x1D96A, offset: 0x1D96A, size: 0x8, addend: 0x0, symName: __ZNSt3__18ios_baseC2B8ue170006Ev, symObjAddr: 0x6708, symBinAddr: 0x10000AC20, symSize: 0x24 }
  - { offsetInCU: 0x1D994, offset: 0x1D994, size: 0x8, addend: 0x0, symName: __ZNSt3__19basic_iosIcNS_11char_traitsIcEEE4initB8ue170006EPNS_15basic_streambufIcS2_EE, symObjAddr: 0x672C, symBinAddr: 0x10000AC44, symSize: 0x44 }
  - { offsetInCU: 0x1D9CB, offset: 0x1D9CB, size: 0x8, addend: 0x0, symName: __ZNSt3__111char_traitsIcE3eofB8ue170006Ev, symObjAddr: 0x6770, symBinAddr: 0x10000AC88, symSize: 0x8 }
  - { offsetInCU: 0x1D9DF, offset: 0x1D9DF, size: 0x8, addend: 0x0, symName: __ZNSt3__18ios_base8setstateB8ue170006Ej, symObjAddr: 0x6778, symBinAddr: 0x10000AC90, symSize: 0x34 }
  - { offsetInCU: 0x1DA16, offset: 0x1DA16, size: 0x8, addend: 0x0, symName: __ZNSt3__113basic_ostreamIcNS_11char_traitsIcEEEC2B8ue170006EPNS_15basic_streambufIcS2_EE, symObjAddr: 0x67AC, symBinAddr: 0x10000ACC4, symSize: 0x60 }
  - { offsetInCU: 0x1DA79, offset: 0x1DA79, size: 0x8, addend: 0x0, symName: __ZNKSt3__113basic_ostreamIcNS_11char_traitsIcEEE6sentrycvbB8ue170006Ev, symObjAddr: 0x69F8, symBinAddr: 0x10000AF10, symSize: 0x1C }
  - { offsetInCU: 0x1DA9F, offset: 0x1DA9F, size: 0x8, addend: 0x0, symName: __ZNSt3__119ostreambuf_iteratorIcNS_11char_traitsIcEEEC1B8ue170006ERNS_13basic_ostreamIcS2_EE, symObjAddr: 0x6C54, symBinAddr: 0x10000B16C, symSize: 0x34 }
  - { offsetInCU: 0x1DAD7, offset: 0x1DAD7, size: 0x8, addend: 0x0, symName: __ZNKSt3__18ios_base5flagsB8ue170006Ev, symObjAddr: 0x6C88, symBinAddr: 0x10000B1A0, symSize: 0x18 }
  - { offsetInCU: 0x1DAFF, offset: 0x1DAFF, size: 0x8, addend: 0x0, symName: __ZNKSt3__19basic_iosIcNS_11char_traitsIcEEE4fillB8ue170006Ev, symObjAddr: 0x6CA0, symBinAddr: 0x10000B1B8, symSize: 0x64 }
  - { offsetInCU: 0x1DB27, offset: 0x1DB27, size: 0x8, addend: 0x0, symName: __ZNKSt3__119ostreambuf_iteratorIcNS_11char_traitsIcEEE6failedB8ue170006Ev, symObjAddr: 0x6D04, symBinAddr: 0x10000B21C, symSize: 0x24 }
  - { offsetInCU: 0x1DB4D, offset: 0x1DB4D, size: 0x8, addend: 0x0, symName: __ZNKSt3__18ios_base5widthB8ue170006Ev, symObjAddr: 0x6D28, symBinAddr: 0x10000B240, symSize: 0x18 }
  - { offsetInCU: 0x1DB75, offset: 0x1DB75, size: 0x8, addend: 0x0, symName: __ZNSt3__115basic_streambufIcNS_11char_traitsIcEEE5sputnB8ue170006EPKcl, symObjAddr: 0x6D40, symBinAddr: 0x10000B258, symSize: 0x3C }
  - { offsetInCU: 0x1DBB7, offset: 0x1DBB7, size: 0x8, addend: 0x0, symName: __ZNSt3__112basic_stringIcNS_11char_traitsIcEENS_9allocatorIcEEEC1B8ue170006Emc, symObjAddr: 0x6D7C, symBinAddr: 0x10000B294, symSize: 0x3C }
  - { offsetInCU: 0x1DBFF, offset: 0x1DBFF, size: 0x8, addend: 0x0, symName: __ZNSt3__112basic_stringIcNS_11char_traitsIcEENS_9allocatorIcEEE4dataB8ue170006Ev, symObjAddr: 0x6DB8, symBinAddr: 0x10000B2D0, symSize: 0x28 }
  - { offsetInCU: 0x1DC25, offset: 0x1DC25, size: 0x8, addend: 0x0, symName: __ZNSt3__18ios_base5widthB8ue170006El, symObjAddr: 0x6DE0, symBinAddr: 0x10000B2F8, symSize: 0x2C }
  - { offsetInCU: 0x1DC6B, offset: 0x1DC6B, size: 0x8, addend: 0x0, symName: __ZNSt3__112basic_stringIcNS_11char_traitsIcEENS_9allocatorIcEEEC2B8ue170006Emc, symObjAddr: 0x6E0C, symBinAddr: 0x10000B324, symSize: 0x4C }
  - { offsetInCU: 0x1DCB3, offset: 0x1DCB3, size: 0x8, addend: 0x0, symName: __ZNSt3__119ostreambuf_iteratorIcNS_11char_traitsIcEEEC2B8ue170006ERNS_13basic_ostreamIcS2_EE, symObjAddr: 0x6E58, symBinAddr: 0x10000B370, symSize: 0x54 }
  - { offsetInCU: 0x1DCEB, offset: 0x1DCEB, size: 0x8, addend: 0x0, symName: __ZNKSt3__19basic_iosIcNS_11char_traitsIcEEE5rdbufB8ue170006Ev, symObjAddr: 0x6EAC, symBinAddr: 0x10000B3C4, symSize: 0x24 }
  - { offsetInCU: 0x1DD13, offset: 0x1DD13, size: 0x8, addend: 0x0, symName: __ZNKSt3__18ios_base5rdbufB8ue170006Ev, symObjAddr: 0x6ED0, symBinAddr: 0x10000B3E8, symSize: 0x18 }
  - { offsetInCU: 0x1DD39, offset: 0x1DD39, size: 0x8, addend: 0x0, symName: __ZNSt3__111char_traitsIcE11eq_int_typeB8ue170006Eii, symObjAddr: 0x6EE8, symBinAddr: 0x10000B400, symSize: 0x28 }
  - { offsetInCU: 0x1DD6C, offset: 0x1DD6C, size: 0x8, addend: 0x0, symName: __ZNKSt3__19basic_iosIcNS_11char_traitsIcEEE5widenB8ue170006Ec, symObjAddr: 0x6F10, symBinAddr: 0x10000B428, symSize: 0x84 }
  - { offsetInCU: 0x1DDDA, offset: 0x1DDDA, size: 0x8, addend: 0x0, symName: __ZNKSt3__15ctypeIcE5widenB8ue170006Ec, symObjAddr: 0x6FC0, symBinAddr: 0x10000B4D8, symSize: 0x38 }
...
