---
triple:          'arm64-apple-darwin'
binary-path:     wa
relocations:
  - { offsetInCU: 0xE9DD, offset: 0xE9DD, size: 0x8, addend: 0x0, symName: __ZNSt3__111__introsortINS_17_ClassicAlgPolicyERNS_6__lessIvvEEP1PLb0EEEvT1_S7_T0_NS_15iterator_traitsIS7_E15difference_typeEb, symObjAddr: 0x376C, symBinAddr: 0x100003D7C, symSize: 0x470 }
  - { offsetInCU: 0xEB08, offset: 0xEB08, size: 0x8, addend: 0x0, symName: __ZNSt3__126__insertion_sort_unguardedB8ue170006INS_17_ClassicAlgPolicyERNS_6__lessIvvEEP1PEEvT1_S7_T0_, symObjAddr: 0x3EC0, symBinAddr: 0x1000044D0, symSize: 0x138 }
  - { offsetInCU: 0xEBF8, offset: 0xEBF8, size: 0x8, addend: 0x0, symName: __ZNSt3__111__sift_downB8ue170006INS_17_ClassicAlgPolicyERNS_6__lessIvvEEP1PEEvT1_OT0_NS_15iterator_traitsIS7_E15difference_typeES7_, symObjAddr: 0x514C, symBinAddr: 0x10000575C, symSize: 0x234 }
  - { offsetInCU: 0xECA5, offset: 0xECA5, size: 0x8, addend: 0x0, symName: __ZNSt3__117__floyd_sift_downB8ue170006INS_17_ClassicAlgPolicyERNS_6__lessIvvEEP1PEET1_S7_OT0_NS_15iterator_traitsIS7_E15difference_typeE, symObjAddr: 0x553C, symBinAddr: 0x100005B4C, symSize: 0x110 }
  - { offsetInCU: 0xED3D, offset: 0xED3D, size: 0x8, addend: 0x0, symName: __ZNSt3__131__partition_with_equals_on_leftB8ue170006INS_17_ClassicAlgPolicyEP1PRNS_6__lessIvvEEEET0_S7_S7_T1_, symObjAddr: 0x4204, symBinAddr: 0x100004814, symSize: 0x224 }
  - { offsetInCU: 0xEDF8, offset: 0xEDF8, size: 0x8, addend: 0x0, symName: __ZNSt3__118__bitset_partitionB8ue170006INS_17_ClassicAlgPolicyEP1PRNS_6__lessIvvEEEENS_4pairIT0_bEES8_S8_T1_, symObjAddr: 0x4428, symBinAddr: 0x100004A38, symSize: 0x344 }
  - { offsetInCU: 0xEEF2, offset: 0xEEF2, size: 0x8, addend: 0x0, symName: __ZNSt3__124__swap_bitmap_pos_withinB8ue170006INS_17_ClassicAlgPolicyEP1PEEvRT0_S5_RyS6_, symObjAddr: 0x5CCC, symBinAddr: 0x1000062DC, symSize: 0x1E8 }
  - { offsetInCU: 0xEFBF, offset: 0xEFBF, size: 0x8, addend: 0x0, symName: __ZNSt3__132__partition_with_equals_on_rightB8ue170006INS_17_ClassicAlgPolicyEP1PRNS_6__lessIvvEEEENS_4pairIT0_bEES8_S8_T1_, symObjAddr: 0x476C, symBinAddr: 0x100004D7C, symSize: 0x234 }
  - { offsetInCU: 0xF089, offset: 0xF089, size: 0x8, addend: 0x0, symName: __ZNSt3__127__insertion_sort_incompleteB8ue170006INS_17_ClassicAlgPolicyERNS_6__lessIvvEEP1PEEbT1_S7_T0_, symObjAddr: 0x49A0, symBinAddr: 0x100004FB0, symSize: 0x31C }
  - { offsetInCU: 0xF17E, offset: 0xF17E, size: 0x8, addend: 0x0, symName: __ZNSt3__124__put_character_sequenceB8ue170006IcNS_11char_traitsIcEEEERNS_13basic_ostreamIT_T0_EES7_PKS4_m, symObjAddr: 0x6808, symBinAddr: 0x100006E18, symSize: 0x1EC }
  - { offsetInCU: 0x11ED3, offset: 0x11ED3, size: 0x8, addend: 0x0, symName: __ZNSt3__13maxB8ue170006IxEERKT_S3_S3_, symObjAddr: 0x1318, symBinAddr: 0x100001928, symSize: 0x2C }
  - { offsetInCU: 0x11F16, offset: 0x11F16, size: 0x8, addend: 0x0, symName: __ZNSt3__13minB8ue170006IxEERKT_S3_S3_, symObjAddr: 0x1344, symBinAddr: 0x100001954, symSize: 0x2C }
  - { offsetInCU: 0x11F59, offset: 0x11F59, size: 0x8, addend: 0x0, symName: __ZNSt3__1lsB8ue170006INS_11char_traitsIcEEEERNS_13basic_ostreamIcT_EES6_PKc, symObjAddr: 0x1370, symBinAddr: 0x100001980, symSize: 0x48 }
  - { offsetInCU: 0x11F9F, offset: 0x11F9F, size: 0x8, addend: 0x0, symName: __ZNSt3__14endlB8ue170006IcNS_11char_traitsIcEEEERNS_13basic_ostreamIT_T0_EES7_, symObjAddr: 0x13E4, symBinAddr: 0x1000019F4, symSize: 0x58 }
  - { offsetInCU: 0x11FDF, offset: 0x11FDF, size: 0x8, addend: 0x0, symName: __ZNSt3__14sortB8ue170006INS_11__wrap_iterIP1PEEEEvT_S5_, symObjAddr: 0x1518, symBinAddr: 0x100001B28, symSize: 0x3C }
  - { offsetInCU: 0x12021, offset: 0x12021, size: 0x8, addend: 0x0, symName: __ZNSt3__1neB8ue170006IP1PEEbRKNS_11__wrap_iterIT_EES7_, symObjAddr: 0x15B4, symBinAddr: 0x100001BC4, symSize: 0x34 }
  - { offsetInCU: 0x12064, offset: 0x12064, size: 0x8, addend: 0x0, symName: __ZNSt3__17reverseB8ue170006INS_11__wrap_iterIP1PEEEEvT_S5_, symObjAddr: 0x1620, symBinAddr: 0x100001C30, symSize: 0x3C }
  - { offsetInCU: 0x120B9, offset: 0x120B9, size: 0x8, addend: 0x0, symName: __ZNSt3__13maxB8ue170006IxNS_6__lessIvvEEEERKT_S5_S5_T0_, symObjAddr: 0x17B4, symBinAddr: 0x100001DC4, symSize: 0x54 }
  - { offsetInCU: 0x121BA, offset: 0x121BA, size: 0x8, addend: 0x0, symName: __ZNSt3__13minB8ue170006IxNS_6__lessIvvEEEERKT_S5_S5_T0_, symObjAddr: 0x183C, symBinAddr: 0x100001E4C, symSize: 0x54 }
  - { offsetInCU: 0x12214, offset: 0x12214, size: 0x8, addend: 0x0, symName: __ZNSt3__112__to_addressB8ue170006I1PEEPT_S3_, symObjAddr: 0x1C48, symBinAddr: 0x100002258, symSize: 0x14 }
  - { offsetInCU: 0x1226E, offset: 0x1226E, size: 0x8, addend: 0x0, symName: __ZNSt3__112construct_atB8ue170006I1PJS1_EPS1_EEPT_S4_DpOT0_, symObjAddr: 0x1CD4, symBinAddr: 0x1000022E4, symSize: 0x34 }
  - { offsetInCU: 0x122DE, offset: 0x122DE, size: 0x8, addend: 0x0, symName: __ZNSt3__13maxB8ue170006ImEERKT_S3_S3_, symObjAddr: 0x2050, symBinAddr: 0x100002660, symSize: 0x2C }
  - { offsetInCU: 0x12321, offset: 0x12321, size: 0x8, addend: 0x0, symName: __ZNSt3__13minB8ue170006ImEERKT_S3_S3_, symObjAddr: 0x207C, symBinAddr: 0x10000268C, symSize: 0x2C }
  - { offsetInCU: 0x1254E, offset: 0x1254E, size: 0x8, addend: 0x0, symName: __ZNSt3__13minB8ue170006ImNS_6__lessIvvEEEERKT_S5_S5_T0_, symObjAddr: 0x210C, symBinAddr: 0x10000271C, symSize: 0x54 }
  - { offsetInCU: 0x12794, offset: 0x12794, size: 0x8, addend: 0x0, symName: __ZNSt3__120__throw_length_errorB8ue170006EPKc, symObjAddr: 0x21F0, symBinAddr: 0x100002800, symSize: 0x64 }
  - { offsetInCU: 0x127BE, offset: 0x127BE, size: 0x8, addend: 0x0, symName: __ZNSt3__13maxB8ue170006ImNS_6__lessIvvEEEERKT_S5_S5_T0_, symObjAddr: 0x2334, symBinAddr: 0x100002944, symSize: 0x54 }
  - { offsetInCU: 0x12818, offset: 0x12818, size: 0x8, addend: 0x0, symName: __ZNSt3__119__allocate_at_leastB8ue170006INS_9allocatorI1PEEEENS_19__allocation_resultINS_16allocator_traitsIT_E7pointerEEERS6_m, symObjAddr: 0x24A4, symBinAddr: 0x100002AB4, symSize: 0x40 }
  - { offsetInCU: 0x1285B, offset: 0x1285B, size: 0x8, addend: 0x0, symName: __ZNSt3__117__libcpp_allocateB8ue170006Emm, symObjAddr: 0x262C, symBinAddr: 0x100002C3C, symSize: 0x60 }
  - { offsetInCU: 0x128B5, offset: 0x128B5, size: 0x8, addend: 0x0, symName: __ZNSt3__124__is_overaligned_for_newB8ue170006Em, symObjAddr: 0x268C, symBinAddr: 0x100002C9C, symSize: 0x20 }
  - { offsetInCU: 0x128E3, offset: 0x128E3, size: 0x8, addend: 0x0, symName: __ZNSt3__121__libcpp_operator_newB8ue170006IJmSt11align_val_tEEEPvDpT_, symObjAddr: 0x26AC, symBinAddr: 0x100002CBC, symSize: 0x2C }
  - { offsetInCU: 0x12930, offset: 0x12930, size: 0x8, addend: 0x0, symName: __ZNSt3__121__libcpp_operator_newB8ue170006IJmEEEPvDpT_, symObjAddr: 0x26D8, symBinAddr: 0x100002CE8, symSize: 0x24 }
  - { offsetInCU: 0x12969, offset: 0x12969, size: 0x8, addend: 0x0, symName: __ZNSt3__142__uninitialized_allocator_move_if_noexceptB8ue170006INS_9allocatorI1PEENS_16reverse_iteratorIPS2_EES6_S2_vEET1_RT_T0_SA_S7_, symObjAddr: 0x2834, symBinAddr: 0x100002E44, symSize: 0x78 }
  - { offsetInCU: 0x129E6, offset: 0x129E6, size: 0x8, addend: 0x0, symName: __ZNSt3__14swapB8ue170006IP1PEENS_9enable_ifIXaasr21is_move_constructibleIT_EE5valuesr18is_move_assignableIS4_EE5valueEvE4typeERS4_S7_, symObjAddr: 0x28F8, symBinAddr: 0x100002F08, symSize: 0x3C }
  - { offsetInCU: 0x12A37, offset: 0x12A37, size: 0x8, addend: 0x0, symName: __ZNSt3__14moveB8ue170006INS_16reverse_iteratorIP1PEES4_EET0_T_S6_S5_, symObjAddr: 0x2A44, symBinAddr: 0x100003054, symSize: 0x78 }
  - { offsetInCU: 0x12A91, offset: 0x12A91, size: 0x8, addend: 0x0, symName: __ZNSt3__16__moveB8ue170006INS_17_ClassicAlgPolicyENS_16reverse_iteratorIP1PEES5_S5_EENS_4pairIT0_T2_EES7_T1_S8_, symObjAddr: 0x2ABC, symBinAddr: 0x1000030CC, symSize: 0x64 }
  - { offsetInCU: 0x12AFD, offset: 0x12AFD, size: 0x8, addend: 0x0, symName: __ZNSt3__123__dispatch_copy_or_moveB8ue170006INS_17_ClassicAlgPolicyENS_11__move_loopIS1_EENS_14__move_trivialENS_16reverse_iteratorIP1PEES8_S8_EENS_4pairIT2_T4_EESA_T3_SB_, symObjAddr: 0x2B20, symBinAddr: 0x100003130, symSize: 0x64 }
  - { offsetInCU: 0x12B7B, offset: 0x12B7B, size: 0x8, addend: 0x0, symName: __ZNSt3__121__unwrap_and_dispatchB8ue170006INS_10__overloadINS_11__move_loopINS_17_ClassicAlgPolicyEEENS_14__move_trivialEEENS_16reverse_iteratorIP1PEESA_SA_Li0EEENS_4pairIT0_T2_EESC_T1_SD_, symObjAddr: 0x2B84, symBinAddr: 0x100003194, symSize: 0x12C }
  - { offsetInCU: 0x12C0B, offset: 0x12C0B, size: 0x8, addend: 0x0, symName: __ZNSt3__114__unwrap_rangeB8ue170006INS_16reverse_iteratorIP1PEES4_EEDaT_T0_, symObjAddr: 0x2CB0, symBinAddr: 0x1000032C0, symSize: 0x4C }
  - { offsetInCU: 0x12D86, offset: 0x12D86, size: 0x8, addend: 0x0, symName: __ZNSt3__113__unwrap_iterB8ue170006INS_16reverse_iteratorIP1PEENS_18__unwrap_iter_implIS4_Lb0EEELi0EEEDTclsrT0_8__unwrapclsr3stdE7declvalIT_EEEES8_, symObjAddr: 0x2DA4, symBinAddr: 0x1000033B4, symSize: 0x44 }
  - { offsetInCU: 0x12DCA, offset: 0x12DCA, size: 0x8, addend: 0x0, symName: __ZNSt3__19make_pairB8ue170006INS_16reverse_iteratorIP1PEES4_EENS_4pairINS_18__unwrap_ref_decayIT_E4typeENS6_IT0_E4typeEEEOS7_OSA_, symObjAddr: 0x2DE8, symBinAddr: 0x1000033F8, symSize: 0x38 }
  - { offsetInCU: 0x12E19, offset: 0x12E19, size: 0x8, addend: 0x0, symName: __ZNSt3__114__rewrap_rangeB8ue170006INS_16reverse_iteratorIP1PEES4_S4_EET0_S5_T1_, symObjAddr: 0x2E20, symBinAddr: 0x100003430, symSize: 0x5C }
  - { offsetInCU: 0x12E6E, offset: 0x12E6E, size: 0x8, addend: 0x0, symName: __ZNSt3__113__rewrap_iterB8ue170006INS_16reverse_iteratorIP1PEES4_NS_18__unwrap_iter_implIS4_Lb0EEEEET_S7_T0_, symObjAddr: 0x2E7C, symBinAddr: 0x10000348C, symSize: 0x74 }
  - { offsetInCU: 0x12F13, offset: 0x12F13, size: 0x8, addend: 0x0, symName: __ZNSt3__1neB8ue170006IP1PS2_EEbRKNS_16reverse_iteratorIT_EERKNS3_IT0_EE, symObjAddr: 0x2FE4, symBinAddr: 0x1000035F4, symSize: 0x48 }
  - { offsetInCU: 0x13107, offset: 0x13107, size: 0x8, addend: 0x0, symName: __ZNSt3__110destroy_atB8ue170006I1PLi0EEEvPT_, symObjAddr: 0x3370, symBinAddr: 0x100003980, symSize: 0x24 }
  - { offsetInCU: 0x1313E, offset: 0x1313E, size: 0x8, addend: 0x0, symName: __ZNSt3__112__destroy_atB8ue170006I1PLi0EEEvPT_, symObjAddr: 0x3394, symBinAddr: 0x1000039A4, symSize: 0x10 }
  - { offsetInCU: 0x13175, offset: 0x13175, size: 0x8, addend: 0x0, symName: __ZNSt3__119__libcpp_deallocateB8ue170006EPvmm, symObjAddr: 0x33E8, symBinAddr: 0x1000039F8, symSize: 0x60 }
  - { offsetInCU: 0x131DA, offset: 0x131DA, size: 0x8, addend: 0x0, symName: __ZNSt3__127__do_deallocate_handle_sizeB8ue170006IJSt11align_val_tEEEvPvmDpT_, symObjAddr: 0x3448, symBinAddr: 0x100003A58, symSize: 0x30 }
  - { offsetInCU: 0x1322D, offset: 0x1322D, size: 0x8, addend: 0x0, symName: __ZNSt3__127__do_deallocate_handle_sizeB8ue170006IJEEEvPvmDpT_, symObjAddr: 0x3478, symBinAddr: 0x100003A88, symSize: 0x28 }
  - { offsetInCU: 0x1326B, offset: 0x1326B, size: 0x8, addend: 0x0, symName: __ZNSt3__124__libcpp_operator_deleteB8ue170006IJPvSt11align_val_tEEEvDpT_, symObjAddr: 0x34A0, symBinAddr: 0x100003AB0, symSize: 0x2C }
  - { offsetInCU: 0x132B4, offset: 0x132B4, size: 0x8, addend: 0x0, symName: __ZNSt3__124__libcpp_operator_deleteB8ue170006IJPvEEEvDpT_, symObjAddr: 0x34CC, symBinAddr: 0x100003ADC, symSize: 0x24 }
  - { offsetInCU: 0x132E9, offset: 0x132E9, size: 0x8, addend: 0x0, symName: __ZNSt3__14sortB8ue170006INS_11__wrap_iterIP1PEENS_6__lessIvvEEEEvT_S7_T0_, symObjAddr: 0x3574, symBinAddr: 0x100003B84, symSize: 0x40 }
  - { offsetInCU: 0x13343, offset: 0x13343, size: 0x8, addend: 0x0, symName: __ZNSt3__111__sort_implB8ue170006INS_17_ClassicAlgPolicyENS_11__wrap_iterIP1PEENS_6__lessIvvEEEEvT0_S8_RT1_, symObjAddr: 0x35B4, symBinAddr: 0x100003BC4, symSize: 0xA8 }
  - { offsetInCU: 0x133A6, offset: 0x133A6, size: 0x8, addend: 0x0, symName: __ZNSt3__123__debug_randomize_rangeB8ue170006INS_17_ClassicAlgPolicyENS_11__wrap_iterIP1PEES5_EEvT0_T1_, symObjAddr: 0x365C, symBinAddr: 0x100003C6C, symSize: 0x14 }
  - { offsetInCU: 0x133F7, offset: 0x133F7, size: 0x8, addend: 0x0, symName: __ZNSt3__115__sort_dispatchB8ue170006INS_17_ClassicAlgPolicyEP1PNS_6__lessIvvEEEEvT0_S6_RT1_, symObjAddr: 0x3670, symBinAddr: 0x100003C80, symSize: 0x64 }
  - { offsetInCU: 0x13475, offset: 0x13475, size: 0x8, addend: 0x0, symName: __ZNSt3__113__unwrap_iterB8ue170006INS_11__wrap_iterIP1PEENS_18__unwrap_iter_implIS4_Lb1EEELi0EEEDTclsrT0_8__unwrapclsr3stdE7declvalIT_EEEES8_, symObjAddr: 0x36D4, symBinAddr: 0x100003CE4, symSize: 0x2C }
  - { offsetInCU: 0x134B9, offset: 0x134B9, size: 0x8, addend: 0x0, symName: __ZNSt3__135__check_strict_weak_ordering_sortedB8ue170006IP1PNS_6__lessIvvEEEEvT_S5_RT0_, symObjAddr: 0x3700, symBinAddr: 0x100003D10, symSize: 0x18 }
  - { offsetInCU: 0x1350F, offset: 0x1350F, size: 0x8, addend: 0x0, symName: __ZNSt3__17__log2iB8ue170006IlEET_S1_, symObjAddr: 0x3718, symBinAddr: 0x100003D28, symSize: 0x54 }
  - { offsetInCU: 0x13546, offset: 0x13546, size: 0x8, addend: 0x0, symName: __ZNSt3__112__libcpp_clzB8ue170006Em, symObjAddr: 0x3BF4, symBinAddr: 0x100004204, symSize: 0x1C }
  - { offsetInCU: 0x13572, offset: 0x13572, size: 0x8, addend: 0x0, symName: __ZNSt3__124__sort3_maybe_branchlessB8ue170006INS_17_ClassicAlgPolicyERNS_6__lessIvvEEP1PEENS_9enable_ifIXntsr21__use_branchless_sortIT0_T1_EE5valueEvE4typeES9_S9_S9_S8_, symObjAddr: 0x3C8C, symBinAddr: 0x10000429C, symSize: 0x3C }
  - { offsetInCU: 0x135E3, offset: 0x135E3, size: 0x8, addend: 0x0, symName: __ZNSt3__124__sort4_maybe_branchlessB8ue170006INS_17_ClassicAlgPolicyERNS_6__lessIvvEEP1PEENS_9enable_ifIXntsr21__use_branchless_sortIT0_T1_EE5valueEvE4typeES9_S9_S9_S9_S8_, symObjAddr: 0x3CC8, symBinAddr: 0x1000042D8, symSize: 0x44 }
  - { offsetInCU: 0x13662, offset: 0x13662, size: 0x8, addend: 0x0, symName: __ZNSt3__124__sort5_maybe_branchlessB8ue170006INS_17_ClassicAlgPolicyERNS_6__lessIvvEEP1PEENS_9enable_ifIXntsr21__use_branchless_sortIT0_T1_EE5valueEvE4typeES9_S9_S9_S9_S9_S8_, symObjAddr: 0x3D0C, symBinAddr: 0x10000431C, symSize: 0x4C }
  - { offsetInCU: 0x136EF, offset: 0x136EF, size: 0x8, addend: 0x0, symName: __ZNSt3__116__insertion_sortB8ue170006INS_17_ClassicAlgPolicyERNS_6__lessIvvEEP1PEEvT1_S7_T0_, symObjAddr: 0x3D58, symBinAddr: 0x100004368, symSize: 0x168 }
  - { offsetInCU: 0x137B2, offset: 0x137B2, size: 0x8, addend: 0x0, symName: __ZNSt3__114__partial_sortB8ue170006INS_17_ClassicAlgPolicyERNS_6__lessIvvEEP1PS6_EET1_S7_S7_T2_RT0_, symObjAddr: 0x3FF8, symBinAddr: 0x100004608, symSize: 0x94 }
  - { offsetInCU: 0x1383A, offset: 0x1383A, size: 0x8, addend: 0x0, symName: __ZNSt3__17__sort3B8ue170006INS_17_ClassicAlgPolicyERNS_6__lessIvvEEP1PEEjT1_S7_S7_T0_, symObjAddr: 0x408C, symBinAddr: 0x10000469C, symSize: 0x144 }
  - { offsetInCU: 0x138B9, offset: 0x138B9, size: 0x8, addend: 0x0, symName: __ZNSt3__19iter_swapB8ue170006IP1PS2_EEvT_T0_, symObjAddr: 0x4D04, symBinAddr: 0x100005314, symSize: 0x2C }
  - { offsetInCU: 0x13901, offset: 0x13901, size: 0x8, addend: 0x0, symName: __ZNSt3__14swapB8ue170006I1PEENS_9enable_ifIXaasr21is_move_constructibleIT_EE5valuesr18is_move_assignableIS3_EE5valueEvE4typeERS3_S6_, symObjAddr: 0x4D30, symBinAddr: 0x100005340, symSize: 0x54 }
  - { offsetInCU: 0x13952, offset: 0x13952, size: 0x8, addend: 0x0, symName: __ZNSt3__17__sort4B8ue170006INS_17_ClassicAlgPolicyERNS_6__lessIvvEEP1PEEvT1_S7_S7_S7_T0_, symObjAddr: 0x4D84, symBinAddr: 0x100005394, symSize: 0xB8 }
  - { offsetInCU: 0x139CD, offset: 0x139CD, size: 0x8, addend: 0x0, symName: __ZNSt3__17__sort5B8ue170006INS_17_ClassicAlgPolicyERNS_6__lessIvvEEP1PEEvT1_S7_S7_S7_S7_T0_, symObjAddr: 0x4E3C, symBinAddr: 0x10000544C, symSize: 0xE8 }
  - { offsetInCU: 0x13A56, offset: 0x13A56, size: 0x8, addend: 0x0, symName: __ZNSt3__123__debug_randomize_rangeB8ue170006INS_17_ClassicAlgPolicyEP1PS3_EEvT0_T1_, symObjAddr: 0x4F68, symBinAddr: 0x100005578, symSize: 0x14 }
  - { offsetInCU: 0x13AA7, offset: 0x13AA7, size: 0x8, addend: 0x0, symName: __ZNSt3__119__partial_sort_implB8ue170006INS_17_ClassicAlgPolicyERNS_6__lessIvvEEP1PS6_EET1_S7_S7_T2_OT0_, symObjAddr: 0x4F7C, symBinAddr: 0x10000558C, symSize: 0x110 }
  - { offsetInCU: 0x13B3D, offset: 0x13B3D, size: 0x8, addend: 0x0, symName: __ZNSt3__111__make_heapB8ue170006INS_17_ClassicAlgPolicyERNS_6__lessIvvEEP1PEEvT1_S7_OT0_, symObjAddr: 0x508C, symBinAddr: 0x10000569C, symSize: 0xC0 }
  - { offsetInCU: 0x13BDF, offset: 0x13BDF, size: 0x8, addend: 0x0, symName: __ZNSt3__111__sort_heapB8ue170006INS_17_ClassicAlgPolicyERNS_6__lessIvvEEP1PEEvT1_S7_OT0_, symObjAddr: 0x5380, symBinAddr: 0x100005990, symSize: 0xA8 }
  - { offsetInCU: 0x13C81, offset: 0x13C81, size: 0x8, addend: 0x0, symName: __ZNSt3__110__pop_heapB8ue170006INS_17_ClassicAlgPolicyENS_6__lessIvvEEP1PEEvT1_S6_RT0_NS_15iterator_traitsIS6_E15difference_typeE, symObjAddr: 0x5428, symBinAddr: 0x100005A38, symSize: 0x114 }
  - { offsetInCU: 0x13D31, offset: 0x13D31, size: 0x8, addend: 0x0, symName: __ZNSt3__19__sift_upB8ue170006INS_17_ClassicAlgPolicyERNS_6__lessIvvEEP1PEEvT1_S7_OT0_NS_15iterator_traitsIS7_E15difference_typeE, symObjAddr: 0x564C, symBinAddr: 0x100005C5C, symSize: 0x144 }
  - { offsetInCU: 0x13DE1, offset: 0x13DE1, size: 0x8, addend: 0x0, symName: __ZNSt3__122__populate_left_bitsetB8ue170006IRNS_6__lessIvvEEP1PS4_EEvT0_T_RT1_Ry, symObjAddr: 0x5790, symBinAddr: 0x100005DA0, symSize: 0xA8 }
  - { offsetInCU: 0x13E9C, offset: 0x13E9C, size: 0x8, addend: 0x0, symName: __ZNSt3__123__populate_right_bitsetB8ue170006IRNS_6__lessIvvEEP1PS4_EEvT0_T_RT1_Ry, symObjAddr: 0x5838, symBinAddr: 0x100005E48, symSize: 0xA0 }
  - { offsetInCU: 0x13F57, offset: 0x13F57, size: 0x8, addend: 0x0, symName: __ZNSt3__117__swap_bitmap_posB8ue170006INS_17_ClassicAlgPolicyEP1PEEvT0_S4_RyS5_, symObjAddr: 0x58D8, symBinAddr: 0x100005EE8, symSize: 0x104 }
  - { offsetInCU: 0x13FF8, offset: 0x13FF8, size: 0x8, addend: 0x0, symName: __ZNSt3__133__bitset_partition_partial_blocksB8ue170006INS_17_ClassicAlgPolicyERNS_6__lessIvvEEP1PS5_EEvRT1_S8_T0_RT2_RySC_, symObjAddr: 0x59DC, symBinAddr: 0x100005FEC, symSize: 0x2F0 }
  - { offsetInCU: 0x14179, offset: 0x14179, size: 0x8, addend: 0x0, symName: __ZNSt3__19make_pairB8ue170006IRP1PRbEENS_4pairINS_18__unwrap_ref_decayIT_E4typeENS6_IT0_E4typeEEEOS7_OSA_, symObjAddr: 0x5EB4, symBinAddr: 0x1000064C4, symSize: 0x38 }
  - { offsetInCU: 0x141C8, offset: 0x141C8, size: 0x8, addend: 0x0, symName: __ZNSt3__112__libcpp_ctzB8ue170006Ey, symObjAddr: 0x5EEC, symBinAddr: 0x1000064FC, symSize: 0x20 }
  - { offsetInCU: 0x141F4, offset: 0x141F4, size: 0x8, addend: 0x0, symName: __ZNSt3__113__libcpp_blsrB8ue170006Ey, symObjAddr: 0x5F0C, symBinAddr: 0x10000651C, symSize: 0x2C }
  - { offsetInCU: 0x14220, offset: 0x14220, size: 0x8, addend: 0x0, symName: __ZNSt3__112__libcpp_clzB8ue170006Ey, symObjAddr: 0x5F6C, symBinAddr: 0x10000657C, symSize: 0x1C }
  - { offsetInCU: 0x14373, offset: 0x14373, size: 0x8, addend: 0x0, symName: __ZNSt3__112__to_addressB8ue170006INS_11__wrap_iterIP1PEEvEEu7__decayIDTclsr19__to_address_helperIT_EE6__callclsr3stdE7declvalIRKS5_EEEEES7_, symObjAddr: 0x6024, symBinAddr: 0x100006634, symSize: 0x24 }
  - { offsetInCU: 0x14410, offset: 0x14410, size: 0x8, addend: 0x0, symName: __ZNSt3__1eqB8ue170006IP1PEEbRKNS_11__wrap_iterIT_EES7_, symObjAddr: 0x6140, symBinAddr: 0x100006750, symSize: 0x48 }
  - { offsetInCU: 0x14453, offset: 0x14453, size: 0x8, addend: 0x0, symName: __ZNSt3__19__reverseB8ue170006INS_17_ClassicAlgPolicyENS_11__wrap_iterIP1PEES5_EEvT0_T1_, symObjAddr: 0x6188, symBinAddr: 0x100006798, symSize: 0x3C }
  - { offsetInCU: 0x144A4, offset: 0x144A4, size: 0x8, addend: 0x0, symName: __ZNSt3__114__reverse_implB8ue170006INS_17_ClassicAlgPolicyENS_11__wrap_iterIP1PEEEEvT0_S6_NS_26random_access_iterator_tagE, symObjAddr: 0x61C4, symBinAddr: 0x1000067D4, symSize: 0x7C }
  - { offsetInCU: 0x144F6, offset: 0x144F6, size: 0x8, addend: 0x0, symName: __ZNSt3__1ltB8ue170006IP1PEEbRKNS_11__wrap_iterIT_EES7_, symObjAddr: 0x6240, symBinAddr: 0x100006850, symSize: 0x48 }
  - { offsetInCU: 0x14539, offset: 0x14539, size: 0x8, addend: 0x0, symName: __ZNSt3__19iter_swapB8ue170006INS_11__wrap_iterIP1PEES4_EEvT_T0_, symObjAddr: 0x62EC, symBinAddr: 0x1000068FC, symSize: 0x50 }
  - { offsetInCU: 0x14581, offset: 0x14581, size: 0x8, addend: 0x0, symName: __ZNSt3__116__pad_and_outputB8ue170006IcNS_11char_traitsIcEEEENS_19ostreambuf_iteratorIT_T0_EES6_PKS4_S8_S8_RNS_8ios_baseES4_, symObjAddr: 0x6A44, symBinAddr: 0x100007054, symSize: 0x240 }
  - { offsetInCU: 0x14650, offset: 0x14650, size: 0x8, addend: 0x0, symName: __ZNSt3__112__to_addressB8ue170006IcEEPT_S2_, symObjAddr: 0x6F80, symBinAddr: 0x100007590, symSize: 0x14 }
  - { offsetInCU: 0x14685, offset: 0x14685, size: 0x8, addend: 0x0, symName: __ZNSt3__19use_facetB8ue170006INS_5ctypeIcEEEERKT_RKNS_6localeE, symObjAddr: 0x7230, symBinAddr: 0x100007840, symSize: 0x2C }
  - { offsetInCU: 0x14B52, offset: 0x14B52, size: 0x8, addend: 0x0, symName: __ZNSt3__118__constexpr_strlenB8ue170006EPKc, symObjAddr: 0x7294, symBinAddr: 0x1000078A4, symSize: 0x24 }
  - { offsetInCU: 0x150AA, offset: 0x150AA, size: 0x8, addend: 0x0, symName: __ZSt28__throw_bad_array_new_lengthB8ue170006v, symObjAddr: 0x25F8, symBinAddr: 0x100002C08, symSize: 0x34 }
  - { offsetInCU: 0x15C71, offset: 0x15C71, size: 0x8, addend: 0x0, symName: __ZNSt3__16vectorI1PNS_9allocatorIS1_EEE26__swap_out_circular_bufferERNS_14__split_bufferIS1_RS3_EE, symObjAddr: 0x1E58, symBinAddr: 0x100002468, symSize: 0x110 }
  - { offsetInCU: 0x18345, offset: 0x18345, size: 0x8, addend: 0x0, symName: _main, symObjAddr: 0x0, symBinAddr: 0x100000610, symSize: 0x1040 }
  - { offsetInCU: 0x18683, offset: 0x18683, size: 0x8, addend: 0x0, symName: __ZNSt3__114basic_ifstreamIcNS_11char_traitsIcEEEC1EPKcj, symObjAddr: 0x1040, symBinAddr: 0x100001650, symSize: 0x16C }
  - { offsetInCU: 0x186E8, offset: 0x186E8, size: 0x8, addend: 0x0, symName: __ZNSt3__114basic_ofstreamIcNS_11char_traitsIcEEEC1EPKcj, symObjAddr: 0x11AC, symBinAddr: 0x1000017BC, symSize: 0x16C }
  - { offsetInCU: 0x18732, offset: 0x18732, size: 0x8, addend: 0x0, symName: __ZNSt3__113basic_ostreamIcNS_11char_traitsIcEEElsB8ue170006EPFRS3_S4_E, symObjAddr: 0x13B8, symBinAddr: 0x1000019C8, symSize: 0x2C }
  - { offsetInCU: 0x18766, offset: 0x18766, size: 0x8, addend: 0x0, symName: __ZNSt3__16vectorI1PNS_9allocatorIS1_EEEC1B8ue170006Ev, symObjAddr: 0x143C, symBinAddr: 0x100001A4C, symSize: 0x2C }
  - { offsetInCU: 0x18790, offset: 0x18790, size: 0x8, addend: 0x0, symName: __ZNSt3__16vectorI1PNS_9allocatorIS1_EEE9push_backB8ue170006EOS1_, symObjAddr: 0x1468, symBinAddr: 0x100001A78, symSize: 0x6C }
  - { offsetInCU: 0x187C7, offset: 0x187C7, size: 0x8, addend: 0x0, symName: __ZN1PC1Exxx, symObjAddr: 0x14D4, symBinAddr: 0x100001AE4, symSize: 0x44 }
  - { offsetInCU: 0x1881B, offset: 0x1881B, size: 0x8, addend: 0x0, symName: __ZNSt3__16vectorI1PNS_9allocatorIS1_EEE5beginB8ue170006Ev, symObjAddr: 0x1554, symBinAddr: 0x100001B64, symSize: 0x30 }
  - { offsetInCU: 0x18843, offset: 0x18843, size: 0x8, addend: 0x0, symName: __ZNSt3__16vectorI1PNS_9allocatorIS1_EEE3endB8ue170006Ev, symObjAddr: 0x1584, symBinAddr: 0x100001B94, symSize: 0x30 }
  - { offsetInCU: 0x1886B, offset: 0x1886B, size: 0x8, addend: 0x0, symName: __ZNKSt3__111__wrap_iterIP1PEdeB8ue170006Ev, symObjAddr: 0x15E8, symBinAddr: 0x100001BF8, symSize: 0x18 }
  - { offsetInCU: 0x18891, offset: 0x18891, size: 0x8, addend: 0x0, symName: __ZNSt3__111__wrap_iterIP1PEppB8ue170006Ev, symObjAddr: 0x1600, symBinAddr: 0x100001C10, symSize: 0x20 }
  - { offsetInCU: 0x188B7, offset: 0x188B7, size: 0x8, addend: 0x0, symName: __ZNKSt3__16vectorI1PNS_9allocatorIS1_EEE4sizeB8ue170006Ev, symObjAddr: 0x165C, symBinAddr: 0x100001C6C, symSize: 0x28 }
  - { offsetInCU: 0x188DD, offset: 0x188DD, size: 0x8, addend: 0x0, symName: __ZNSt3__16vectorI1PNS_9allocatorIS1_EEEixB8ue170006Em, symObjAddr: 0x1684, symBinAddr: 0x100001C94, symSize: 0x2C }
  - { offsetInCU: 0x18914, offset: 0x18914, size: 0x8, addend: 0x0, symName: __ZNSt3__114basic_ofstreamIcNS_11char_traitsIcEEE5closeEv, symObjAddr: 0x16B0, symBinAddr: 0x100001CC0, symSize: 0x58 }
  - { offsetInCU: 0x1893C, offset: 0x1893C, size: 0x8, addend: 0x0, symName: __ZNSt3__16vectorI1PNS_9allocatorIS1_EEED1B8ue170006Ev, symObjAddr: 0x1708, symBinAddr: 0x100001D18, symSize: 0x2C }
  - { offsetInCU: 0x1896B, offset: 0x1896B, size: 0x8, addend: 0x0, symName: __ZNSt3__114basic_ofstreamIcNS_11char_traitsIcEEED1Ev, symObjAddr: 0x1734, symBinAddr: 0x100001D44, symSize: 0x40 }
  - { offsetInCU: 0x1899D, offset: 0x1899D, size: 0x8, addend: 0x0, symName: __ZNSt3__114basic_ifstreamIcNS_11char_traitsIcEEED1Ev, symObjAddr: 0x1774, symBinAddr: 0x100001D84, symSize: 0x40 }
  - { offsetInCU: 0x189DA, offset: 0x189DA, size: 0x8, addend: 0x0, symName: __ZNKSt3__16__lessIvvEclB8ue170006IxxEEbRKT_RKT0_, symObjAddr: 0x1808, symBinAddr: 0x100001E18, symSize: 0x34 }
  - { offsetInCU: 0x18A2E, offset: 0x18A2E, size: 0x8, addend: 0x0, symName: __ZNSt3__16vectorI1PNS_9allocatorIS1_EEEC2B8ue170006Ev, symObjAddr: 0x1890, symBinAddr: 0x100001EA0, symSize: 0x4C }
  - { offsetInCU: 0x18A64, offset: 0x18A64, size: 0x8, addend: 0x0, symName: __ZNSt3__117__compressed_pairIP1PNS_9allocatorIS1_EEEC1B8ue170006IDnNS_18__default_init_tagEEEOT_OT0_, symObjAddr: 0x18DC, symBinAddr: 0x100001EEC, symSize: 0x3C }
  - { offsetInCU: 0x18ABC, offset: 0x18ABC, size: 0x8, addend: 0x0, symName: __ZNSt3__117__compressed_pairIP1PNS_9allocatorIS1_EEEC2B8ue170006IDnNS_18__default_init_tagEEEOT_OT0_, symObjAddr: 0x1924, symBinAddr: 0x100001F34, symSize: 0x40 }
  - { offsetInCU: 0x18B14, offset: 0x18B14, size: 0x8, addend: 0x0, symName: __ZNSt3__122__compressed_pair_elemIP1PLi0ELb0EEC2B8ue170006IDnvEEOT_, symObjAddr: 0x1964, symBinAddr: 0x100001F74, symSize: 0x1C }
  - { offsetInCU: 0x18B56, offset: 0x18B56, size: 0x8, addend: 0x0, symName: __ZNSt3__122__compressed_pair_elemINS_9allocatorI1PEELi1ELb1EEC2B8ue170006ENS_18__default_init_tagE, symObjAddr: 0x1980, symBinAddr: 0x100001F90, symSize: 0x2C }
  - { offsetInCU: 0x18B8A, offset: 0x18B8A, size: 0x8, addend: 0x0, symName: __ZNSt3__19allocatorI1PEC2B8ue170006Ev, symObjAddr: 0x19AC, symBinAddr: 0x100001FBC, symSize: 0x2C }
  - { offsetInCU: 0x18BB4, offset: 0x18BB4, size: 0x8, addend: 0x0, symName: __ZNSt3__116__non_trivial_ifILb1ENS_9allocatorI1PEEEC2B8ue170006Ev, symObjAddr: 0x19D8, symBinAddr: 0x100001FE8, symSize: 0x14 }
  - { offsetInCU: 0x18BDE, offset: 0x18BDE, size: 0x8, addend: 0x0, symName: __ZNSt3__16vectorI1PNS_9allocatorIS1_EEE9__end_capB8ue170006Ev, symObjAddr: 0x19EC, symBinAddr: 0x100001FFC, symSize: 0x28 }
  - { offsetInCU: 0x18C0A, offset: 0x18C0A, size: 0x8, addend: 0x0, symName: __ZNSt3__16vectorI1PNS_9allocatorIS1_EEE22__construct_one_at_endB8ue170006IJS1_EEEvDpOT_, symObjAddr: 0x1A14, symBinAddr: 0x100002024, symSize: 0x90 }
  - { offsetInCU: 0x18C59, offset: 0x18C59, size: 0x8, addend: 0x0, symName: __ZNSt3__16vectorI1PNS_9allocatorIS1_EEE21__push_back_slow_pathIS1_EEvOT_, symObjAddr: 0x1AA4, symBinAddr: 0x1000020B4, symSize: 0xD8 }
  - { offsetInCU: 0x18CB7, offset: 0x18CB7, size: 0x8, addend: 0x0, symName: __ZNSt3__117__compressed_pairIP1PNS_9allocatorIS1_EEE5firstB8ue170006Ev, symObjAddr: 0x1B7C, symBinAddr: 0x10000218C, symSize: 0x24 }
  - { offsetInCU: 0x18CDD, offset: 0x18CDD, size: 0x8, addend: 0x0, symName: __ZNSt3__122__compressed_pair_elemIP1PLi0ELb0EE5__getB8ue170006Ev, symObjAddr: 0x1BA0, symBinAddr: 0x1000021B0, symSize: 0x14 }
  - { offsetInCU: 0x18D1E, offset: 0x18D1E, size: 0x8, addend: 0x0, symName: __ZNSt3__16vectorI1PNS_9allocatorIS1_EEE21_ConstructTransactionC1B8ue170006ERS4_m, symObjAddr: 0x1BB4, symBinAddr: 0x1000021C4, symSize: 0x3C }
  - { offsetInCU: 0x18D66, offset: 0x18D66, size: 0x8, addend: 0x0, symName: __ZNSt3__116allocator_traitsINS_9allocatorI1PEEE9constructB8ue170006IS2_JS2_EvvEEvRS3_PT_DpOT0_, symObjAddr: 0x1BF0, symBinAddr: 0x100002200, symSize: 0x30 }
  - { offsetInCU: 0x18DBA, offset: 0x18DBA, size: 0x8, addend: 0x0, symName: __ZNSt3__16vectorI1PNS_9allocatorIS1_EEE7__allocB8ue170006Ev, symObjAddr: 0x1C20, symBinAddr: 0x100002230, symSize: 0x28 }
  - { offsetInCU: 0x18DE0, offset: 0x18DE0, size: 0x8, addend: 0x0, symName: __ZNSt3__16vectorI1PNS_9allocatorIS1_EEE21_ConstructTransactionD1B8ue170006Ev, symObjAddr: 0x1C5C, symBinAddr: 0x10000226C, symSize: 0x2C }
  - { offsetInCU: 0x18E0A, offset: 0x18E0A, size: 0x8, addend: 0x0, symName: __ZNSt3__16vectorI1PNS_9allocatorIS1_EEE21_ConstructTransactionC2B8ue170006ERS4_m, symObjAddr: 0x1C88, symBinAddr: 0x100002298, symSize: 0x4C }
  - { offsetInCU: 0x18E52, offset: 0x18E52, size: 0x8, addend: 0x0, symName: __ZNSt3__117__compressed_pairIP1PNS_9allocatorIS1_EEE6secondB8ue170006Ev, symObjAddr: 0x1D08, symBinAddr: 0x100002318, symSize: 0x24 }
  - { offsetInCU: 0x18E78, offset: 0x18E78, size: 0x8, addend: 0x0, symName: __ZNSt3__122__compressed_pair_elemINS_9allocatorI1PEELi1ELb1EE5__getB8ue170006Ev, symObjAddr: 0x1D2C, symBinAddr: 0x10000233C, symSize: 0x14 }
  - { offsetInCU: 0x18E9E, offset: 0x18E9E, size: 0x8, addend: 0x0, symName: __ZNSt3__16vectorI1PNS_9allocatorIS1_EEE21_ConstructTransactionD2B8ue170006Ev, symObjAddr: 0x1D40, symBinAddr: 0x100002350, symSize: 0x20 }
  - { offsetInCU: 0x18EC8, offset: 0x18EC8, size: 0x8, addend: 0x0, symName: __ZNKSt3__16vectorI1PNS_9allocatorIS1_EEE11__recommendB8ue170006Em, symObjAddr: 0x1D60, symBinAddr: 0x100002370, symSize: 0xB4 }
  - { offsetInCU: 0x18F1D, offset: 0x18F1D, size: 0x8, addend: 0x0, symName: __ZNSt3__114__split_bufferI1PRNS_9allocatorIS1_EEEC1EmmS4_, symObjAddr: 0x1E14, symBinAddr: 0x100002424, symSize: 0x44 }
  - { offsetInCU: 0x18F73, offset: 0x18F73, size: 0x8, addend: 0x0, symName: __ZNSt3__114__split_bufferI1PRNS_9allocatorIS1_EEED1Ev, symObjAddr: 0x1F68, symBinAddr: 0x100002578, symSize: 0x2C }
  - { offsetInCU: 0x18F9F, offset: 0x18F9F, size: 0x8, addend: 0x0, symName: __ZNKSt3__16vectorI1PNS_9allocatorIS1_EEE8max_sizeEv, symObjAddr: 0x1F94, symBinAddr: 0x1000025A4, symSize: 0x60 }
  - { offsetInCU: 0x18FC7, offset: 0x18FC7, size: 0x8, addend: 0x0, symName: __ZNKSt3__16vectorI1PNS_9allocatorIS1_EEE20__throw_length_errorB8ue170006Ev, symObjAddr: 0x1FF4, symBinAddr: 0x100002604, symSize: 0x1C }
  - { offsetInCU: 0x18FED, offset: 0x18FED, size: 0x8, addend: 0x0, symName: __ZNKSt3__16vectorI1PNS_9allocatorIS1_EEE8capacityB8ue170006Ev, symObjAddr: 0x2010, symBinAddr: 0x100002620, symSize: 0x40 }
  - { offsetInCU: 0x1901E, offset: 0x1901E, size: 0x8, addend: 0x0, symName: __ZNSt3__116allocator_traitsINS_9allocatorI1PEEE8max_sizeB8ue170006IS3_vvEEmRKS3_, symObjAddr: 0x20A8, symBinAddr: 0x1000026B8, symSize: 0x28 }
  - { offsetInCU: 0x19049, offset: 0x19049, size: 0x8, addend: 0x0, symName: __ZNKSt3__16vectorI1PNS_9allocatorIS1_EEE7__allocB8ue170006Ev, symObjAddr: 0x20D0, symBinAddr: 0x1000026E0, symSize: 0x28 }
  - { offsetInCU: 0x1906F, offset: 0x1906F, size: 0x8, addend: 0x0, symName: __ZNSt3__114numeric_limitsIlE3maxB8ue170006Ev, symObjAddr: 0x20F8, symBinAddr: 0x100002708, symSize: 0x14 }
  - { offsetInCU: 0x1908E, offset: 0x1908E, size: 0x8, addend: 0x0, symName: __ZNKSt3__16__lessIvvEclB8ue170006ImmEEbRKT_RKT0_, symObjAddr: 0x2160, symBinAddr: 0x100002770, symSize: 0x34 }
  - { offsetInCU: 0x190E2, offset: 0x190E2, size: 0x8, addend: 0x0, symName: __ZNSt3__114numeric_limitsImE3maxB8ue170006Ev, symObjAddr: 0x2194, symBinAddr: 0x1000027A4, symSize: 0x14 }
  - { offsetInCU: 0x190F6, offset: 0x190F6, size: 0x8, addend: 0x0, symName: __ZNSt3__123__libcpp_numeric_limitsImLb1EE3maxB8ue170006Ev, symObjAddr: 0x21A8, symBinAddr: 0x1000027B8, symSize: 0x8 }
  - { offsetInCU: 0x1910A, offset: 0x1910A, size: 0x8, addend: 0x0, symName: __ZNKSt3__117__compressed_pairIP1PNS_9allocatorIS1_EEE6secondB8ue170006Ev, symObjAddr: 0x21B0, symBinAddr: 0x1000027C0, symSize: 0x24 }
  - { offsetInCU: 0x19130, offset: 0x19130, size: 0x8, addend: 0x0, symName: __ZNKSt3__122__compressed_pair_elemINS_9allocatorI1PEELi1ELb1EE5__getB8ue170006Ev, symObjAddr: 0x21D4, symBinAddr: 0x1000027E4, symSize: 0x14 }
  - { offsetInCU: 0x19156, offset: 0x19156, size: 0x8, addend: 0x0, symName: __ZNSt3__123__libcpp_numeric_limitsIlLb1EE3maxB8ue170006Ev, symObjAddr: 0x21E8, symBinAddr: 0x1000027F8, symSize: 0x8 }
  - { offsetInCU: 0x1916A, offset: 0x1916A, size: 0x8, addend: 0x0, symName: __ZNSt12length_errorC1B8ue170006EPKc, symObjAddr: 0x2254, symBinAddr: 0x100002864, symSize: 0x34 }
  - { offsetInCU: 0x191A2, offset: 0x191A2, size: 0x8, addend: 0x0, symName: __ZNSt12length_errorC2B8ue170006EPKc, symObjAddr: 0x2288, symBinAddr: 0x100002898, symSize: 0x4C }
  - { offsetInCU: 0x191DA, offset: 0x191DA, size: 0x8, addend: 0x0, symName: __ZNKSt3__16vectorI1PNS_9allocatorIS1_EEE9__end_capB8ue170006Ev, symObjAddr: 0x22D4, symBinAddr: 0x1000028E4, symSize: 0x28 }
  - { offsetInCU: 0x19200, offset: 0x19200, size: 0x8, addend: 0x0, symName: __ZNKSt3__117__compressed_pairIP1PNS_9allocatorIS1_EEE5firstB8ue170006Ev, symObjAddr: 0x22FC, symBinAddr: 0x10000290C, symSize: 0x24 }
  - { offsetInCU: 0x19226, offset: 0x19226, size: 0x8, addend: 0x0, symName: __ZNKSt3__122__compressed_pair_elemIP1PLi0ELb0EE5__getB8ue170006Ev, symObjAddr: 0x2320, symBinAddr: 0x100002930, symSize: 0x14 }
  - { offsetInCU: 0x1924C, offset: 0x1924C, size: 0x8, addend: 0x0, symName: __ZNSt3__114__split_bufferI1PRNS_9allocatorIS1_EEEC2EmmS4_, symObjAddr: 0x2388, symBinAddr: 0x100002998, symSize: 0xE0 }
  - { offsetInCU: 0x192BF, offset: 0x192BF, size: 0x8, addend: 0x0, symName: __ZNSt3__117__compressed_pairIP1PRNS_9allocatorIS1_EEEC1B8ue170006IDnS5_EEOT_OT0_, symObjAddr: 0x2468, symBinAddr: 0x100002A78, symSize: 0x3C }
  - { offsetInCU: 0x19317, offset: 0x19317, size: 0x8, addend: 0x0, symName: __ZNSt3__114__split_bufferI1PRNS_9allocatorIS1_EEE7__allocB8ue170006Ev, symObjAddr: 0x24E4, symBinAddr: 0x100002AF4, symSize: 0x28 }
  - { offsetInCU: 0x1933D, offset: 0x1933D, size: 0x8, addend: 0x0, symName: __ZNSt3__114__split_bufferI1PRNS_9allocatorIS1_EEE9__end_capB8ue170006Ev, symObjAddr: 0x250C, symBinAddr: 0x100002B1C, symSize: 0x28 }
  - { offsetInCU: 0x19363, offset: 0x19363, size: 0x8, addend: 0x0, symName: __ZNSt3__117__compressed_pairIP1PRNS_9allocatorIS1_EEEC2B8ue170006IDnS5_EEOT_OT0_, symObjAddr: 0x2534, symBinAddr: 0x100002B44, symSize: 0x48 }
  - { offsetInCU: 0x193BB, offset: 0x193BB, size: 0x8, addend: 0x0, symName: __ZNSt3__122__compressed_pair_elemIRNS_9allocatorI1PEELi1ELb0EEC2B8ue170006IS4_vEEOT_, symObjAddr: 0x257C, symBinAddr: 0x100002B8C, symSize: 0x20 }
  - { offsetInCU: 0x193FD, offset: 0x193FD, size: 0x8, addend: 0x0, symName: __ZNSt3__19allocatorI1PE8allocateB8ue170006Em, symObjAddr: 0x259C, symBinAddr: 0x100002BAC, symSize: 0x5C }
  - { offsetInCU: 0x19431, offset: 0x19431, size: 0x8, addend: 0x0, symName: __ZNSt3__117__compressed_pairIP1PRNS_9allocatorIS1_EEE6secondB8ue170006Ev, symObjAddr: 0x26FC, symBinAddr: 0x100002D0C, symSize: 0x28 }
  - { offsetInCU: 0x19457, offset: 0x19457, size: 0x8, addend: 0x0, symName: __ZNSt3__122__compressed_pair_elemIRNS_9allocatorI1PEELi1ELb0EE5__getB8ue170006Ev, symObjAddr: 0x2724, symBinAddr: 0x100002D34, symSize: 0x18 }
  - { offsetInCU: 0x1947D, offset: 0x1947D, size: 0x8, addend: 0x0, symName: __ZNSt3__117__compressed_pairIP1PRNS_9allocatorIS1_EEE5firstB8ue170006Ev, symObjAddr: 0x273C, symBinAddr: 0x100002D4C, symSize: 0x24 }
  - { offsetInCU: 0x194A3, offset: 0x194A3, size: 0x8, addend: 0x0, symName: __ZNKSt3__16vectorI1PNS_9allocatorIS1_EEE17__annotate_deleteB8ue170006Ev, symObjAddr: 0x2760, symBinAddr: 0x100002D70, symSize: 0xD4 }
  - { offsetInCU: 0x194C9, offset: 0x194C9, size: 0x8, addend: 0x0, symName: __ZNSt3__116reverse_iteratorIP1PEC1B8ue170006ES2_, symObjAddr: 0x28AC, symBinAddr: 0x100002EBC, symSize: 0x34 }
  - { offsetInCU: 0x19501, offset: 0x19501, size: 0x8, addend: 0x0, symName: __ZNKSt3__116reverse_iteratorIP1PE4baseB8ue170006Ev, symObjAddr: 0x28E0, symBinAddr: 0x100002EF0, symSize: 0x18 }
  - { offsetInCU: 0x19527, offset: 0x19527, size: 0x8, addend: 0x0, symName: __ZNKSt3__16vectorI1PNS_9allocatorIS1_EEE14__annotate_newB8ue170006Em, symObjAddr: 0x2934, symBinAddr: 0x100002F44, symSize: 0xC8 }
  - { offsetInCU: 0x1955C, offset: 0x1955C, size: 0x8, addend: 0x0, symName: __ZNKSt3__16vectorI1PNS_9allocatorIS1_EEE31__annotate_contiguous_containerB8ue170006EPKvS6_S6_S6_, symObjAddr: 0x29FC, symBinAddr: 0x10000300C, symSize: 0x20 }
  - { offsetInCU: 0x195AE, offset: 0x195AE, size: 0x8, addend: 0x0, symName: __ZNKSt3__16vectorI1PNS_9allocatorIS1_EEE4dataB8ue170006Ev, symObjAddr: 0x2A1C, symBinAddr: 0x10000302C, symSize: 0x28 }
  - { offsetInCU: 0x195FA, offset: 0x195FA, size: 0x8, addend: 0x0, symName: __ZNKSt3__111__move_loopINS_17_ClassicAlgPolicyEEclB8ue170006INS_16reverse_iteratorIP1PEES7_S7_EENS_4pairIT_T1_EES9_T0_SA_, symObjAddr: 0x2CFC, symBinAddr: 0x10000330C, symSize: 0xA8 }
  - { offsetInCU: 0x19665, offset: 0x19665, size: 0x8, addend: 0x0, symName: __ZNSt3__119__unwrap_range_implINS_16reverse_iteratorIP1PEES4_E8__unwrapB8ue170006ES4_S4_, symObjAddr: 0x2EF0, symBinAddr: 0x100003500, symSize: 0x84 }
  - { offsetInCU: 0x1969C, offset: 0x1969C, size: 0x8, addend: 0x0, symName: __ZNSt3__14pairINS_16reverse_iteratorIP1PEES4_EC1B8ue170006IS4_S4_LPv0EEEOT_OT0_, symObjAddr: 0x2F74, symBinAddr: 0x100003584, symSize: 0x3C }
  - { offsetInCU: 0x196FA, offset: 0x196FA, size: 0x8, addend: 0x0, symName: __ZNSt3__14pairINS_16reverse_iteratorIP1PEES4_EC2B8ue170006IS4_S4_LPv0EEEOT_OT0_, symObjAddr: 0x2FB0, symBinAddr: 0x1000035C0, symSize: 0x34 }
  - { offsetInCU: 0x19758, offset: 0x19758, size: 0x8, addend: 0x0, symName: __ZNSt3__18_IterOpsINS_17_ClassicAlgPolicyEE11__iter_moveB8ue170006IRNS_16reverse_iteratorIP1PEEEENS_9enable_ifIXsr12is_referenceIDTdeclsr3stdE7declvalIRT_EEEEE5valueEDTclsr3stdE4movedeclsr3stdE7declvalISB_EEEEE4typeEOSA_, symObjAddr: 0x302C, symBinAddr: 0x10000363C, symSize: 0x28 }
  - { offsetInCU: 0x19784, offset: 0x19784, size: 0x8, addend: 0x0, symName: __ZNKSt3__116reverse_iteratorIP1PEdeB8ue170006Ev, symObjAddr: 0x3054, symBinAddr: 0x100003664, symSize: 0x28 }
  - { offsetInCU: 0x197B8, offset: 0x197B8, size: 0x8, addend: 0x0, symName: __ZNSt3__116reverse_iteratorIP1PEppB8ue170006Ev, symObjAddr: 0x307C, symBinAddr: 0x10000368C, symSize: 0x20 }
  - { offsetInCU: 0x197DE, offset: 0x197DE, size: 0x8, addend: 0x0, symName: __ZNSt3__18_IterOpsINS_17_ClassicAlgPolicyEE25__validate_iter_referenceB8ue170006IRNS_16reverse_iteratorIP1PEEEEvv, symObjAddr: 0x309C, symBinAddr: 0x1000036AC, symSize: 0x4 }
  - { offsetInCU: 0x197FC, offset: 0x197FC, size: 0x8, addend: 0x0, symName: __ZNSt3__118__unwrap_iter_implINS_16reverse_iteratorIP1PEELb0EE8__unwrapB8ue170006ES4_, symObjAddr: 0x30A0, symBinAddr: 0x1000036B0, symSize: 0x24 }
  - { offsetInCU: 0x1981F, offset: 0x1981F, size: 0x8, addend: 0x0, symName: __ZNSt3__119__unwrap_range_implINS_16reverse_iteratorIP1PEES4_E8__rewrapB8ue170006ES4_S4_, symObjAddr: 0x30C4, symBinAddr: 0x1000036D4, symSize: 0x5C }
  - { offsetInCU: 0x19850, offset: 0x19850, size: 0x8, addend: 0x0, symName: __ZNSt3__118__unwrap_iter_implINS_16reverse_iteratorIP1PEELb0EE8__rewrapB8ue170006ES4_S4_, symObjAddr: 0x3120, symBinAddr: 0x100003730, symSize: 0x2C }
  - { offsetInCU: 0x1987D, offset: 0x1987D, size: 0x8, addend: 0x0, symName: __ZNSt3__116reverse_iteratorIP1PEC2B8ue170006ES2_, symObjAddr: 0x314C, symBinAddr: 0x10000375C, symSize: 0x28 }
  - { offsetInCU: 0x198B5, offset: 0x198B5, size: 0x8, addend: 0x0, symName: __ZNSt3__114__split_bufferI1PRNS_9allocatorIS1_EEED2Ev, symObjAddr: 0x3174, symBinAddr: 0x100003784, symSize: 0x8C }
  - { offsetInCU: 0x198E1, offset: 0x198E1, size: 0x8, addend: 0x0, symName: __ZNSt3__114__split_bufferI1PRNS_9allocatorIS1_EEE5clearB8ue170006Ev, symObjAddr: 0x3200, symBinAddr: 0x100003810, symSize: 0x28 }
  - { offsetInCU: 0x19907, offset: 0x19907, size: 0x8, addend: 0x0, symName: __ZNSt3__116allocator_traitsINS_9allocatorI1PEEE10deallocateB8ue170006ERS3_PS2_m, symObjAddr: 0x3228, symBinAddr: 0x100003838, symSize: 0x34 }
  - { offsetInCU: 0x19949, offset: 0x19949, size: 0x8, addend: 0x0, symName: __ZNKSt3__114__split_bufferI1PRNS_9allocatorIS1_EEE8capacityB8ue170006Ev, symObjAddr: 0x325C, symBinAddr: 0x10000386C, symSize: 0x40 }
  - { offsetInCU: 0x1996F, offset: 0x1996F, size: 0x8, addend: 0x0, symName: __ZNSt3__114__split_bufferI1PRNS_9allocatorIS1_EEE17__destruct_at_endB8ue170006EPS1_, symObjAddr: 0x329C, symBinAddr: 0x1000038AC, symSize: 0x2C }
  - { offsetInCU: 0x199A3, offset: 0x199A3, size: 0x8, addend: 0x0, symName: __ZNSt3__114__split_bufferI1PRNS_9allocatorIS1_EEE17__destruct_at_endB8ue170006EPS1_NS_17integral_constantIbLb0EEE, symObjAddr: 0x32C8, symBinAddr: 0x1000038D8, symSize: 0x80 }
  - { offsetInCU: 0x199E3, offset: 0x199E3, size: 0x8, addend: 0x0, symName: __ZNSt3__116allocator_traitsINS_9allocatorI1PEEE7destroyB8ue170006IS2_vvEEvRS3_PT_, symObjAddr: 0x3348, symBinAddr: 0x100003958, symSize: 0x28 }
  - { offsetInCU: 0x19A1D, offset: 0x19A1D, size: 0x8, addend: 0x0, symName: __ZNSt3__19allocatorI1PE10deallocateB8ue170006EPS1_m, symObjAddr: 0x33A4, symBinAddr: 0x1000039B4, symSize: 0x44 }
  - { offsetInCU: 0x19A5F, offset: 0x19A5F, size: 0x8, addend: 0x0, symName: __ZNKSt3__114__split_bufferI1PRNS_9allocatorIS1_EEE9__end_capB8ue170006Ev, symObjAddr: 0x34F0, symBinAddr: 0x100003B00, symSize: 0x28 }
  - { offsetInCU: 0x19A85, offset: 0x19A85, size: 0x8, addend: 0x0, symName: __ZNKSt3__117__compressed_pairIP1PRNS_9allocatorIS1_EEE5firstB8ue170006Ev, symObjAddr: 0x3518, symBinAddr: 0x100003B28, symSize: 0x24 }
  - { offsetInCU: 0x19AAB, offset: 0x19AAB, size: 0x8, addend: 0x0, symName: __ZN1PC2Exxx, symObjAddr: 0x353C, symBinAddr: 0x100003B4C, symSize: 0x38 }
  - { offsetInCU: 0x19B05, offset: 0x19B05, size: 0x8, addend: 0x0, symName: __ZNKSt3__16__lessIvvEclB8ue170006I1PS3_EEbRKT_RKT0_, symObjAddr: 0x3C10, symBinAddr: 0x100004220, symSize: 0x48 }
  - { offsetInCU: 0x19B59, offset: 0x19B59, size: 0x8, addend: 0x0, symName: __ZNSt3__18_IterOpsINS_17_ClassicAlgPolicyEE9iter_swapB8ue170006IRP1PS6_EEvOT_OT0_, symObjAddr: 0x3C58, symBinAddr: 0x100004268, symSize: 0x34 }
  - { offsetInCU: 0x19BA2, offset: 0x19BA2, size: 0x8, addend: 0x0, symName: __ZNSt3__18_IterOpsINS_17_ClassicAlgPolicyEE9iter_swapB8ue170006IRP1PS5_EEvOT_OT0_, symObjAddr: 0x41D0, symBinAddr: 0x1000047E0, symSize: 0x34 }
  - { offsetInCU: 0x19BE5, offset: 0x19BE5, size: 0x8, addend: 0x0, symName: __ZNK1PltES_, symObjAddr: 0x4CD4, symBinAddr: 0x1000052E4, symSize: 0x30 }
  - { offsetInCU: 0x19C1A, offset: 0x19C1A, size: 0x8, addend: 0x0, symName: __ZNSt3__18_IterOpsINS_17_ClassicAlgPolicyEE11__iter_moveB8ue170006IRP1PEENS_9enable_ifIXsr12is_referenceIDTdeclsr3stdE7declvalIRT_EEEEE5valueEDTclsr3stdE4movedeclsr3stdE7declvalIS9_EEEEE4typeEOS8_, symObjAddr: 0x4F24, symBinAddr: 0x100005534, symSize: 0x28 }
  - { offsetInCU: 0x19C46, offset: 0x19C46, size: 0x8, addend: 0x0, symName: __ZNSt3__18_IterOpsINS_17_ClassicAlgPolicyEE25__validate_iter_referenceB8ue170006IRP1PEEvv, symObjAddr: 0x4F4C, symBinAddr: 0x10000555C, symSize: 0x4 }
  - { offsetInCU: 0x19C64, offset: 0x19C64, size: 0x8, addend: 0x0, symName: __ZNSt3__18_IterOpsINS_17_ClassicAlgPolicyEE4nextB8ue170006IP1PEET_S6_S6_, symObjAddr: 0x4F50, symBinAddr: 0x100005560, symSize: 0x18 }
  - { offsetInCU: 0x19C9A, offset: 0x19C9A, size: 0x8, addend: 0x0, symName: __ZNSt3__18_IterOpsINS_17_ClassicAlgPolicyEE9iter_swapB8ue170006IP1PS5_EEvOT_OT0_, symObjAddr: 0x5F38, symBinAddr: 0x100006548, symSize: 0x34 }
  - { offsetInCU: 0x19CF9, offset: 0x19CF9, size: 0x8, addend: 0x0, symName: __ZNSt3__14pairIP1PbEC1B8ue170006IRS2_RbLPv0EEEOT_OT0_, symObjAddr: 0x5F88, symBinAddr: 0x100006598, symSize: 0x3C }
  - { offsetInCU: 0x19D57, offset: 0x19D57, size: 0x8, addend: 0x0, symName: __ZNSt3__14pairIP1PbEC2B8ue170006IRS2_RbLPv0EEEOT_OT0_, symObjAddr: 0x5FC4, symBinAddr: 0x1000065D4, symSize: 0x38 }
  - { offsetInCU: 0x19DB5, offset: 0x19DB5, size: 0x8, addend: 0x0, symName: __ZNSt3__118__unwrap_iter_implINS_11__wrap_iterIP1PEELb1EE8__unwrapB8ue170006ES4_, symObjAddr: 0x5FFC, symBinAddr: 0x10000660C, symSize: 0x28 }
  - { offsetInCU: 0x19DE3, offset: 0x19DE3, size: 0x8, addend: 0x0, symName: __ZNSt3__119__to_address_helperINS_11__wrap_iterIP1PEEvE6__callB8ue170006ERKS4_, symObjAddr: 0x6048, symBinAddr: 0x100006658, symSize: 0x30 }
  - { offsetInCU: 0x19E06, offset: 0x19E06, size: 0x8, addend: 0x0, symName: __ZNSt3__114pointer_traitsINS_11__wrap_iterIP1PEEE10to_addressB8ue170006ES4_, symObjAddr: 0x6078, symBinAddr: 0x100006688, symSize: 0x2C }
  - { offsetInCU: 0x19E29, offset: 0x19E29, size: 0x8, addend: 0x0, symName: __ZNKSt3__111__wrap_iterIP1PE4baseB8ue170006Ev, symObjAddr: 0x60A4, symBinAddr: 0x1000066B4, symSize: 0x18 }
  - { offsetInCU: 0x19E4F, offset: 0x19E4F, size: 0x8, addend: 0x0, symName: __ZNSt3__16vectorI1PNS_9allocatorIS1_EEE11__make_iterB8ue170006EPS1_, symObjAddr: 0x60BC, symBinAddr: 0x1000066CC, symSize: 0x30 }
  - { offsetInCU: 0x19E84, offset: 0x19E84, size: 0x8, addend: 0x0, symName: __ZNSt3__111__wrap_iterIP1PEC1B8ue170006ES2_, symObjAddr: 0x60EC, symBinAddr: 0x1000066FC, symSize: 0x34 }
  - { offsetInCU: 0x19EBC, offset: 0x19EBC, size: 0x8, addend: 0x0, symName: __ZNSt3__111__wrap_iterIP1PEC2B8ue170006ES2_, symObjAddr: 0x6120, symBinAddr: 0x100006730, symSize: 0x20 }
  - { offsetInCU: 0x19EF4, offset: 0x19EF4, size: 0x8, addend: 0x0, symName: __ZNSt3__111__wrap_iterIP1PEmmB8ue170006Ev, symObjAddr: 0x6288, symBinAddr: 0x100006898, symSize: 0x20 }
  - { offsetInCU: 0x19F1A, offset: 0x19F1A, size: 0x8, addend: 0x0, symName: __ZNSt3__18_IterOpsINS_17_ClassicAlgPolicyEE9iter_swapB8ue170006IRNS_11__wrap_iterIP1PEES8_EEvOT_OT0_, symObjAddr: 0x62A8, symBinAddr: 0x1000068B8, symSize: 0x44 }
  - { offsetInCU: 0x19F5D, offset: 0x19F5D, size: 0x8, addend: 0x0, symName: __ZNSt3__16vectorI1PNS_9allocatorIS1_EEED2B8ue170006Ev, symObjAddr: 0x633C, symBinAddr: 0x10000694C, symSize: 0x44 }
  - { offsetInCU: 0x19F87, offset: 0x19F87, size: 0x8, addend: 0x0, symName: __ZNSt3__16vectorI1PNS_9allocatorIS1_EEE16__destroy_vectorC1B8ue170006ERS4_, symObjAddr: 0x6380, symBinAddr: 0x100006990, symSize: 0x34 }
  - { offsetInCU: 0x19FC0, offset: 0x19FC0, size: 0x8, addend: 0x0, symName: __ZNSt3__16vectorI1PNS_9allocatorIS1_EEE16__destroy_vectorclB8ue170006Ev, symObjAddr: 0x63B4, symBinAddr: 0x1000069C4, symSize: 0x90 }
  - { offsetInCU: 0x19FE6, offset: 0x19FE6, size: 0x8, addend: 0x0, symName: __ZNSt3__16vectorI1PNS_9allocatorIS1_EEE16__destroy_vectorC2B8ue170006ERS4_, symObjAddr: 0x6444, symBinAddr: 0x100006A54, symSize: 0x20 }
  - { offsetInCU: 0x1A01F, offset: 0x1A01F, size: 0x8, addend: 0x0, symName: __ZNSt3__16vectorI1PNS_9allocatorIS1_EEE7__clearB8ue170006Ev, symObjAddr: 0x6464, symBinAddr: 0x100006A74, symSize: 0x28 }
  - { offsetInCU: 0x1A045, offset: 0x1A045, size: 0x8, addend: 0x0, symName: __ZNSt3__16vectorI1PNS_9allocatorIS1_EEE22__base_destruct_at_endB8ue170006EPS1_, symObjAddr: 0x648C, symBinAddr: 0x100006A9C, symSize: 0x8C }
  - { offsetInCU: 0x1A089, offset: 0x1A089, size: 0x8, addend: 0x0, symName: __ZNSt3__114basic_ofstreamIcNS_11char_traitsIcEEED2Ev, symObjAddr: 0x6518, symBinAddr: 0x100006B28, symSize: 0x64 }
  - { offsetInCU: 0x1A0C3, offset: 0x1A0C3, size: 0x8, addend: 0x0, symName: __ZTv0_n24_NSt3__114basic_ofstreamIcNS_11char_traitsIcEEED1Ev, symObjAddr: 0x657C, symBinAddr: 0x100006B8C, symSize: 0x28 }
  - { offsetInCU: 0x1A0DA, offset: 0x1A0DA, size: 0x8, addend: 0x0, symName: __ZNSt3__114basic_ifstreamIcNS_11char_traitsIcEEED2Ev, symObjAddr: 0x65A4, symBinAddr: 0x100006BB4, symSize: 0x64 }
  - { offsetInCU: 0x1A114, offset: 0x1A114, size: 0x8, addend: 0x0, symName: __ZTv0_n24_NSt3__114basic_ifstreamIcNS_11char_traitsIcEEED1Ev, symObjAddr: 0x6608, symBinAddr: 0x100006C18, symSize: 0x28 }
  - { offsetInCU: 0x1A12B, offset: 0x1A12B, size: 0x8, addend: 0x0, symName: __ZNSt3__19basic_iosIcNS_11char_traitsIcEEEC2B8ue170006Ev, symObjAddr: 0x6630, symBinAddr: 0x100006C40, symSize: 0x44 }
  - { offsetInCU: 0x1A155, offset: 0x1A155, size: 0x8, addend: 0x0, symName: __ZNSt3__113basic_istreamIcNS_11char_traitsIcEEEC2B8ue170006EPNS_15basic_streambufIcS2_EE, symObjAddr: 0x6674, symBinAddr: 0x100006C84, symSize: 0x64 }
  - { offsetInCU: 0x1A19A, offset: 0x1A19A, size: 0x8, addend: 0x0, symName: __ZNSt3__19basic_iosIcNS_11char_traitsIcEEE8setstateB8ue170006Ej, symObjAddr: 0x66D8, symBinAddr: 0x100006CE8, symSize: 0x2C }
  - { offsetInCU: 0x1A1CF, offset: 0x1A1CF, size: 0x8, addend: 0x0, symName: __ZNSt3__18ios_baseC2B8ue170006Ev, symObjAddr: 0x6704, symBinAddr: 0x100006D14, symSize: 0x24 }
  - { offsetInCU: 0x1A1F9, offset: 0x1A1F9, size: 0x8, addend: 0x0, symName: __ZNSt3__19basic_iosIcNS_11char_traitsIcEEE4initB8ue170006EPNS_15basic_streambufIcS2_EE, symObjAddr: 0x6728, symBinAddr: 0x100006D38, symSize: 0x44 }
  - { offsetInCU: 0x1A230, offset: 0x1A230, size: 0x8, addend: 0x0, symName: __ZNSt3__111char_traitsIcE3eofB8ue170006Ev, symObjAddr: 0x676C, symBinAddr: 0x100006D7C, symSize: 0x8 }
  - { offsetInCU: 0x1A244, offset: 0x1A244, size: 0x8, addend: 0x0, symName: __ZNSt3__18ios_base8setstateB8ue170006Ej, symObjAddr: 0x6774, symBinAddr: 0x100006D84, symSize: 0x34 }
  - { offsetInCU: 0x1A27B, offset: 0x1A27B, size: 0x8, addend: 0x0, symName: __ZNSt3__113basic_ostreamIcNS_11char_traitsIcEEEC2B8ue170006EPNS_15basic_streambufIcS2_EE, symObjAddr: 0x67A8, symBinAddr: 0x100006DB8, symSize: 0x60 }
  - { offsetInCU: 0x1A2C0, offset: 0x1A2C0, size: 0x8, addend: 0x0, symName: __ZNSt3__111char_traitsIcE6lengthB8ue170006EPKc, symObjAddr: 0x69F4, symBinAddr: 0x100007004, symSize: 0x34 }
  - { offsetInCU: 0x1A304, offset: 0x1A304, size: 0x8, addend: 0x0, symName: __ZNKSt3__113basic_ostreamIcNS_11char_traitsIcEEE6sentrycvbB8ue170006Ev, symObjAddr: 0x6A28, symBinAddr: 0x100007038, symSize: 0x1C }
  - { offsetInCU: 0x1A32A, offset: 0x1A32A, size: 0x8, addend: 0x0, symName: __ZNSt3__119ostreambuf_iteratorIcNS_11char_traitsIcEEEC1B8ue170006ERNS_13basic_ostreamIcS2_EE, symObjAddr: 0x6C84, symBinAddr: 0x100007294, symSize: 0x34 }
  - { offsetInCU: 0x1A362, offset: 0x1A362, size: 0x8, addend: 0x0, symName: __ZNKSt3__18ios_base5flagsB8ue170006Ev, symObjAddr: 0x6CB8, symBinAddr: 0x1000072C8, symSize: 0x18 }
  - { offsetInCU: 0x1A38A, offset: 0x1A38A, size: 0x8, addend: 0x0, symName: __ZNKSt3__19basic_iosIcNS_11char_traitsIcEEE4fillB8ue170006Ev, symObjAddr: 0x6CD0, symBinAddr: 0x1000072E0, symSize: 0x64 }
  - { offsetInCU: 0x1A3B2, offset: 0x1A3B2, size: 0x8, addend: 0x0, symName: __ZNKSt3__119ostreambuf_iteratorIcNS_11char_traitsIcEEE6failedB8ue170006Ev, symObjAddr: 0x6D34, symBinAddr: 0x100007344, symSize: 0x24 }
  - { offsetInCU: 0x1A3D8, offset: 0x1A3D8, size: 0x8, addend: 0x0, symName: __ZNKSt3__18ios_base5widthB8ue170006Ev, symObjAddr: 0x6D58, symBinAddr: 0x100007368, symSize: 0x18 }
  - { offsetInCU: 0x1A400, offset: 0x1A400, size: 0x8, addend: 0x0, symName: __ZNSt3__115basic_streambufIcNS_11char_traitsIcEEE5sputnB8ue170006EPKcl, symObjAddr: 0x6D70, symBinAddr: 0x100007380, symSize: 0x3C }
  - { offsetInCU: 0x1A442, offset: 0x1A442, size: 0x8, addend: 0x0, symName: __ZNSt3__112basic_stringIcNS_11char_traitsIcEENS_9allocatorIcEEEC1B8ue170006Emc, symObjAddr: 0x6DAC, symBinAddr: 0x1000073BC, symSize: 0x3C }
  - { offsetInCU: 0x1A48A, offset: 0x1A48A, size: 0x8, addend: 0x0, symName: __ZNSt3__112basic_stringIcNS_11char_traitsIcEENS_9allocatorIcEEE4dataB8ue170006Ev, symObjAddr: 0x6DE8, symBinAddr: 0x1000073F8, symSize: 0x28 }
  - { offsetInCU: 0x1A4B0, offset: 0x1A4B0, size: 0x8, addend: 0x0, symName: __ZNSt3__18ios_base5widthB8ue170006El, symObjAddr: 0x6E10, symBinAddr: 0x100007420, symSize: 0x2C }
  - { offsetInCU: 0x1A4F6, offset: 0x1A4F6, size: 0x8, addend: 0x0, symName: __ZNSt3__112basic_stringIcNS_11char_traitsIcEENS_9allocatorIcEEEC2B8ue170006Emc, symObjAddr: 0x6E3C, symBinAddr: 0x10000744C, symSize: 0x4C }
  - { offsetInCU: 0x1A53E, offset: 0x1A53E, size: 0x8, addend: 0x0, symName: __ZNSt3__117__compressed_pairINS_12basic_stringIcNS_11char_traitsIcEENS_9allocatorIcEEE5__repES5_EC1B8ue170006INS_18__default_init_tagESA_EEOT_OT0_, symObjAddr: 0x6E88, symBinAddr: 0x100007498, symSize: 0x3C }
  - { offsetInCU: 0x1A596, offset: 0x1A596, size: 0x8, addend: 0x0, symName: __ZNSt3__117__compressed_pairINS_12basic_stringIcNS_11char_traitsIcEENS_9allocatorIcEEE5__repES5_EC2B8ue170006INS_18__default_init_tagESA_EEOT_OT0_, symObjAddr: 0x6EC4, symBinAddr: 0x1000074D4, symSize: 0x3C }
  - { offsetInCU: 0x1A5EE, offset: 0x1A5EE, size: 0x8, addend: 0x0, symName: __ZNSt3__122__compressed_pair_elemINS_12basic_stringIcNS_11char_traitsIcEENS_9allocatorIcEEE5__repELi0ELb0EEC2B8ue170006ENS_18__default_init_tagE, symObjAddr: 0x6F00, symBinAddr: 0x100007510, symSize: 0x14 }
  - { offsetInCU: 0x1A622, offset: 0x1A622, size: 0x8, addend: 0x0, symName: __ZNSt3__122__compressed_pair_elemINS_9allocatorIcEELi1ELb1EEC2B8ue170006ENS_18__default_init_tagE, symObjAddr: 0x6F14, symBinAddr: 0x100007524, symSize: 0x2C }
  - { offsetInCU: 0x1A656, offset: 0x1A656, size: 0x8, addend: 0x0, symName: __ZNSt3__19allocatorIcEC2B8ue170006Ev, symObjAddr: 0x6F40, symBinAddr: 0x100007550, symSize: 0x2C }
  - { offsetInCU: 0x1A680, offset: 0x1A680, size: 0x8, addend: 0x0, symName: __ZNSt3__116__non_trivial_ifILb1ENS_9allocatorIcEEEC2B8ue170006Ev, symObjAddr: 0x6F6C, symBinAddr: 0x10000757C, symSize: 0x14 }
  - { offsetInCU: 0x1A6AA, offset: 0x1A6AA, size: 0x8, addend: 0x0, symName: __ZNSt3__112basic_stringIcNS_11char_traitsIcEENS_9allocatorIcEEE13__get_pointerB8ue170006Ev, symObjAddr: 0x6F94, symBinAddr: 0x1000075A4, symSize: 0x54 }
  - { offsetInCU: 0x1A6D0, offset: 0x1A6D0, size: 0x8, addend: 0x0, symName: __ZNKSt3__112basic_stringIcNS_11char_traitsIcEENS_9allocatorIcEEE9__is_longB8ue170006Ev, symObjAddr: 0x6FE8, symBinAddr: 0x1000075F8, symSize: 0x38 }
  - { offsetInCU: 0x1A6F6, offset: 0x1A6F6, size: 0x8, addend: 0x0, symName: __ZNSt3__112basic_stringIcNS_11char_traitsIcEENS_9allocatorIcEEE18__get_long_pointerB8ue170006Ev, symObjAddr: 0x7020, symBinAddr: 0x100007630, symSize: 0x28 }
  - { offsetInCU: 0x1A71C, offset: 0x1A71C, size: 0x8, addend: 0x0, symName: __ZNSt3__112basic_stringIcNS_11char_traitsIcEENS_9allocatorIcEEE19__get_short_pointerB8ue170006Ev, symObjAddr: 0x7048, symBinAddr: 0x100007658, symSize: 0x28 }
  - { offsetInCU: 0x1A742, offset: 0x1A742, size: 0x8, addend: 0x0, symName: __ZNKSt3__117__compressed_pairINS_12basic_stringIcNS_11char_traitsIcEENS_9allocatorIcEEE5__repES5_E5firstB8ue170006Ev, symObjAddr: 0x7070, symBinAddr: 0x100007680, symSize: 0x24 }
  - { offsetInCU: 0x1A768, offset: 0x1A768, size: 0x8, addend: 0x0, symName: __ZNKSt3__122__compressed_pair_elemINS_12basic_stringIcNS_11char_traitsIcEENS_9allocatorIcEEE5__repELi0ELb0EE5__getB8ue170006Ev, symObjAddr: 0x7094, symBinAddr: 0x1000076A4, symSize: 0x14 }
  - { offsetInCU: 0x1A78E, offset: 0x1A78E, size: 0x8, addend: 0x0, symName: __ZNSt3__117__compressed_pairINS_12basic_stringIcNS_11char_traitsIcEENS_9allocatorIcEEE5__repES5_E5firstB8ue170006Ev, symObjAddr: 0x70A8, symBinAddr: 0x1000076B8, symSize: 0x24 }
  - { offsetInCU: 0x1A7B4, offset: 0x1A7B4, size: 0x8, addend: 0x0, symName: __ZNSt3__122__compressed_pair_elemINS_12basic_stringIcNS_11char_traitsIcEENS_9allocatorIcEEE5__repELi0ELb0EE5__getB8ue170006Ev, symObjAddr: 0x70CC, symBinAddr: 0x1000076DC, symSize: 0x14 }
  - { offsetInCU: 0x1A7DA, offset: 0x1A7DA, size: 0x8, addend: 0x0, symName: __ZNSt3__114pointer_traitsIPcE10pointer_toB8ue170006ERc, symObjAddr: 0x70E0, symBinAddr: 0x1000076F0, symSize: 0x14 }
  - { offsetInCU: 0x1A7FD, offset: 0x1A7FD, size: 0x8, addend: 0x0, symName: __ZNSt3__119ostreambuf_iteratorIcNS_11char_traitsIcEEEC2B8ue170006ERNS_13basic_ostreamIcS2_EE, symObjAddr: 0x70F4, symBinAddr: 0x100007704, symSize: 0x54 }
  - { offsetInCU: 0x1A835, offset: 0x1A835, size: 0x8, addend: 0x0, symName: __ZNKSt3__19basic_iosIcNS_11char_traitsIcEEE5rdbufB8ue170006Ev, symObjAddr: 0x7148, symBinAddr: 0x100007758, symSize: 0x24 }
  - { offsetInCU: 0x1A85D, offset: 0x1A85D, size: 0x8, addend: 0x0, symName: __ZNKSt3__18ios_base5rdbufB8ue170006Ev, symObjAddr: 0x716C, symBinAddr: 0x10000777C, symSize: 0x18 }
  - { offsetInCU: 0x1A883, offset: 0x1A883, size: 0x8, addend: 0x0, symName: __ZNSt3__111char_traitsIcE11eq_int_typeB8ue170006Eii, symObjAddr: 0x7184, symBinAddr: 0x100007794, symSize: 0x28 }
  - { offsetInCU: 0x1A8B6, offset: 0x1A8B6, size: 0x8, addend: 0x0, symName: __ZNKSt3__19basic_iosIcNS_11char_traitsIcEEE5widenB8ue170006Ec, symObjAddr: 0x71AC, symBinAddr: 0x1000077BC, symSize: 0x84 }
  - { offsetInCU: 0x1A924, offset: 0x1A924, size: 0x8, addend: 0x0, symName: __ZNKSt3__15ctypeIcE5widenB8ue170006Ec, symObjAddr: 0x725C, symBinAddr: 0x10000786C, symSize: 0x38 }
...
